Archive member included to satisfy reference by file (symbol)

/usr/lib/gcc/arm-none-eabi/7.3.1/thumb/v6-m/libgcc.a(_dvmd_tls.o)
                              CMakeFiles/fm_example.dir/home/pi/pico/pico-sdk/src/rp2_common/pico_divider/divider.S.obj (__aeabi_idiv0)
/usr/lib/gcc/arm-none-eabi/7.3.1/../../../arm-none-eabi/lib/thumb/v6-m/libg.a(lib_a-atexit.o)
                              /usr/lib/gcc/arm-none-eabi/7.3.1/../../../arm-none-eabi/lib/thumb/v6-m/crt0.o (atexit)
/usr/lib/gcc/arm-none-eabi/7.3.1/../../../arm-none-eabi/lib/thumb/v6-m/libg.a(lib_a-calloc.o)
                              CMakeFiles/fm_example.dir/home/pi/pico/pico-sdk/src/rp2_common/pico_malloc/pico_malloc.c.obj (calloc)
/usr/lib/gcc/arm-none-eabi/7.3.1/../../../arm-none-eabi/lib/thumb/v6-m/libg.a(lib_a-callocr.o)
                              /usr/lib/gcc/arm-none-eabi/7.3.1/../../../arm-none-eabi/lib/thumb/v6-m/libg.a(lib_a-calloc.o) (_calloc_r)
/usr/lib/gcc/arm-none-eabi/7.3.1/../../../arm-none-eabi/lib/thumb/v6-m/libg.a(lib_a-ctype_.o)
                              CMakeFiles/fm_example.dir/home/pi/pico/pico-sdk/lib/tinyusb/src/tusb.c.obj (_ctype_)
/usr/lib/gcc/arm-none-eabi/7.3.1/../../../arm-none-eabi/lib/thumb/v6-m/libg.a(lib_a-fini.o)
                              /usr/lib/gcc/arm-none-eabi/7.3.1/../../../arm-none-eabi/lib/thumb/v6-m/crt0.o (__libc_fini_array)
/usr/lib/gcc/arm-none-eabi/7.3.1/../../../arm-none-eabi/lib/thumb/v6-m/libg.a(lib_a-impure.o)
                              /usr/lib/gcc/arm-none-eabi/7.3.1/../../../arm-none-eabi/lib/thumb/v6-m/libg.a(lib_a-calloc.o) (_impure_ptr)
/usr/lib/gcc/arm-none-eabi/7.3.1/../../../arm-none-eabi/lib/thumb/v6-m/libg.a(lib_a-init.o)
                              /usr/lib/gcc/arm-none-eabi/7.3.1/../../../arm-none-eabi/lib/thumb/v6-m/crt0.o (__libc_init_array)
/usr/lib/gcc/arm-none-eabi/7.3.1/../../../arm-none-eabi/lib/thumb/v6-m/libg.a(lib_a-malloc.o)
                              CMakeFiles/fm_example.dir/home/pi/pico/pico-sdk/src/rp2_common/pico_malloc/pico_malloc.c.obj (malloc)
/usr/lib/gcc/arm-none-eabi/7.3.1/../../../arm-none-eabi/lib/thumb/v6-m/libg.a(lib_a-mallocr.o)
                              /usr/lib/gcc/arm-none-eabi/7.3.1/../../../arm-none-eabi/lib/thumb/v6-m/libg.a(lib_a-callocr.o) (_malloc_r)
/usr/lib/gcc/arm-none-eabi/7.3.1/../../../arm-none-eabi/lib/thumb/v6-m/libg.a(lib_a-memcmp.o)
                              CMakeFiles/fm_example.dir/pico-ss-oled/ss_oled.c.obj (memcmp)
/usr/lib/gcc/arm-none-eabi/7.3.1/../../../arm-none-eabi/lib/thumb/v6-m/libg.a(lib_a-mlock.o)
                              /usr/lib/gcc/arm-none-eabi/7.3.1/../../../arm-none-eabi/lib/thumb/v6-m/libg.a(lib_a-mallocr.o) (__malloc_lock)
/usr/lib/gcc/arm-none-eabi/7.3.1/../../../arm-none-eabi/lib/thumb/v6-m/libg.a(lib_a-sbrkr.o)
                              /usr/lib/gcc/arm-none-eabi/7.3.1/../../../arm-none-eabi/lib/thumb/v6-m/libg.a(lib_a-mallocr.o) (_sbrk_r)
/usr/lib/gcc/arm-none-eabi/7.3.1/../../../arm-none-eabi/lib/thumb/v6-m/libg.a(lib_a-strlen-stub.o)
                              CMakeFiles/fm_example.dir/home/pi/pico/pico-sdk/src/rp2_common/pico_stdio/stdio.c.obj (strlen)
/usr/lib/gcc/arm-none-eabi/7.3.1/../../../arm-none-eabi/lib/thumb/v6-m/libg.a(lib_a-__atexit.o)
                              /usr/lib/gcc/arm-none-eabi/7.3.1/../../../arm-none-eabi/lib/thumb/v6-m/libg.a(lib_a-atexit.o) (__register_exitproc)
/usr/lib/gcc/arm-none-eabi/7.3.1/../../../arm-none-eabi/lib/thumb/v6-m/libg.a(lib_a-freer.o)
                              /usr/lib/gcc/arm-none-eabi/7.3.1/../../../arm-none-eabi/lib/thumb/v6-m/libg.a(lib_a-malloc.o) (_free_r)
/usr/lib/gcc/arm-none-eabi/7.3.1/../../../arm-none-eabi/lib/thumb/v6-m/libg.a(lib_a-reent.o)
                              /usr/lib/gcc/arm-none-eabi/7.3.1/../../../arm-none-eabi/lib/thumb/v6-m/libg.a(lib_a-sbrkr.o) (errno)

Allocating common symbols
Common symbol       size              file

sf_table            0x100             CMakeFiles/fm_example.dir/home/pi/pico/pico-sdk/src/rp2_common/pico_float/float_init_rom.c.obj
errno               0x4               /usr/lib/gcc/arm-none-eabi/7.3.1/../../../arm-none-eabi/lib/thumb/v6-m/libg.a(lib_a-reent.o)
_usbd_qdef_buf      0xc0              CMakeFiles/fm_example.dir/home/pi/pico/pico-sdk/lib/tinyusb/src/device/usbd.c.obj
sf_clz_func         0x4               CMakeFiles/fm_example.dir/home/pi/pico/pico-sdk/src/rp2_common/pico_float/float_init_rom.c.obj
sd_table            0x100             CMakeFiles/fm_example.dir/home/pi/pico/pico-sdk/src/rp2_common/pico_double/double_init_rom.c.obj
uart_char_to_line_feed
                    0x4               CMakeFiles/fm_example.dir/home/pi/pico/pico-sdk/src/rp2_common/hardware_uart/uart.c.obj

Discarded input sections

 .text          0x00000000        0x0 /usr/lib/gcc/arm-none-eabi/7.3.1/thumb/v6-m/crti.o
 .data          0x00000000        0x0 /usr/lib/gcc/arm-none-eabi/7.3.1/thumb/v6-m/crti.o
 .bss           0x00000000        0x0 /usr/lib/gcc/arm-none-eabi/7.3.1/thumb/v6-m/crti.o
 .data          0x00000000        0x4 /usr/lib/gcc/arm-none-eabi/7.3.1/thumb/v6-m/crtbegin.o
 .fini_array    0x00000000        0x4 /usr/lib/gcc/arm-none-eabi/7.3.1/thumb/v6-m/crtbegin.o
 .text          0x00000000       0x6c /usr/lib/gcc/arm-none-eabi/7.3.1/../../../arm-none-eabi/lib/thumb/v6-m/crt0.o
 .data          0x00000000        0x0 /usr/lib/gcc/arm-none-eabi/7.3.1/../../../arm-none-eabi/lib/thumb/v6-m/crt0.o
 .bss           0x00000000        0x0 /usr/lib/gcc/arm-none-eabi/7.3.1/../../../arm-none-eabi/lib/thumb/v6-m/crt0.o
 .ARM.extab     0x00000000        0x0 /usr/lib/gcc/arm-none-eabi/7.3.1/../../../arm-none-eabi/lib/thumb/v6-m/crt0.o
 .ARM.exidx     0x00000000        0x8 /usr/lib/gcc/arm-none-eabi/7.3.1/../../../arm-none-eabi/lib/thumb/v6-m/crt0.o
 .debug_line    0x00000000       0x86 /usr/lib/gcc/arm-none-eabi/7.3.1/../../../arm-none-eabi/lib/thumb/v6-m/crt0.o
 .debug_info    0x00000000       0x26 /usr/lib/gcc/arm-none-eabi/7.3.1/../../../arm-none-eabi/lib/thumb/v6-m/crt0.o
 .debug_abbrev  0x00000000       0x14 /usr/lib/gcc/arm-none-eabi/7.3.1/../../../arm-none-eabi/lib/thumb/v6-m/crt0.o
 .debug_aranges
                0x00000000       0x20 /usr/lib/gcc/arm-none-eabi/7.3.1/../../../arm-none-eabi/lib/thumb/v6-m/crt0.o
 .debug_str     0x00000000       0x82 /usr/lib/gcc/arm-none-eabi/7.3.1/../../../arm-none-eabi/lib/thumb/v6-m/crt0.o
 .ARM.attributes
                0x00000000       0x1b /usr/lib/gcc/arm-none-eabi/7.3.1/../../../arm-none-eabi/lib/thumb/v6-m/crt0.o
 .text          0x00000000        0x0 CMakeFiles/fm_example.dir/fm_example.cpp.obj
 .data          0x00000000        0x0 CMakeFiles/fm_example.dir/fm_example.cpp.obj
 .bss           0x00000000        0x0 CMakeFiles/fm_example.dir/fm_example.cpp.obj
 .text          0x00000000        0x0 CMakeFiles/fm_example.dir/fm_rda5807/fm_rda5807.c.obj
 .data          0x00000000        0x0 CMakeFiles/fm_example.dir/fm_rda5807/fm_rda5807.c.obj
 .bss           0x00000000        0x0 CMakeFiles/fm_example.dir/fm_rda5807/fm_rda5807.c.obj
 .text.fm_get_config
                0x00000000       0x26 CMakeFiles/fm_example.dir/fm_rda5807/fm_rda5807.c.obj
 .text.fm_seek_blocking
                0x00000000       0x6c CMakeFiles/fm_example.dir/fm_rda5807/fm_rda5807.c.obj
 .rodata.__func__.6211
                0x00000000       0x11 CMakeFiles/fm_example.dir/fm_rda5807/fm_rda5807.c.obj
 .text          0x00000000        0x0 CMakeFiles/fm_example.dir/home/pi/pico/pico-sdk/src/rp2_common/hardware_i2c/i2c.c.obj
 .data          0x00000000        0x0 CMakeFiles/fm_example.dir/home/pi/pico/pico-sdk/src/rp2_common/hardware_i2c/i2c.c.obj
 .bss           0x00000000        0x0 CMakeFiles/fm_example.dir/home/pi/pico/pico-sdk/src/rp2_common/hardware_i2c/i2c.c.obj
 .text.i2c_deinit
                0x00000000       0x1c CMakeFiles/fm_example.dir/home/pi/pico/pico-sdk/src/rp2_common/hardware_i2c/i2c.c.obj
 .text.i2c_set_slave_mode
                0x00000000       0x32 CMakeFiles/fm_example.dir/home/pi/pico/pico-sdk/src/rp2_common/hardware_i2c/i2c.c.obj
 .text.i2c_write_blocking_until
                0x00000000       0x32 CMakeFiles/fm_example.dir/home/pi/pico/pico-sdk/src/rp2_common/hardware_i2c/i2c.c.obj
 .text.i2c_write_timeout_per_char_us
                0x00000000       0x32 CMakeFiles/fm_example.dir/home/pi/pico/pico-sdk/src/rp2_common/hardware_i2c/i2c.c.obj
 .text.i2c_read_blocking_until
                0x00000000       0x32 CMakeFiles/fm_example.dir/home/pi/pico/pico-sdk/src/rp2_common/hardware_i2c/i2c.c.obj
 .text.i2c_read_timeout_per_char_us
                0x00000000       0x32 CMakeFiles/fm_example.dir/home/pi/pico/pico-sdk/src/rp2_common/hardware_i2c/i2c.c.obj
 .text          0x00000000        0x0 CMakeFiles/fm_example.dir/home/pi/pico/pico-sdk/src/rp2_common/hardware_claim/claim.c.obj
 .data          0x00000000        0x0 CMakeFiles/fm_example.dir/home/pi/pico/pico-sdk/src/rp2_common/hardware_claim/claim.c.obj
 .bss           0x00000000        0x0 CMakeFiles/fm_example.dir/home/pi/pico/pico-sdk/src/rp2_common/hardware_claim/claim.c.obj
 .text.hw_is_claimed
                0x00000000       0x16 CMakeFiles/fm_example.dir/home/pi/pico/pico-sdk/src/rp2_common/hardware_claim/claim.c.obj
 .text.hw_claim_clear
                0x00000000       0x40 CMakeFiles/fm_example.dir/home/pi/pico/pico-sdk/src/rp2_common/hardware_claim/claim.c.obj
 .rodata.__func__.4376
                0x00000000        0xf CMakeFiles/fm_example.dir/home/pi/pico/pico-sdk/src/rp2_common/hardware_claim/claim.c.obj
 .rodata.hw_claim_clear.str1.4
                0x00000000       0x5d CMakeFiles/fm_example.dir/home/pi/pico/pico-sdk/src/rp2_common/hardware_claim/claim.c.obj
 .text          0x00000000        0x0 CMakeFiles/fm_example.dir/home/pi/pico/pico-sdk/src/rp2_common/pico_platform/platform.c.obj
 .data          0x00000000        0x0 CMakeFiles/fm_example.dir/home/pi/pico/pico-sdk/src/rp2_common/pico_platform/platform.c.obj
 .bss           0x00000000        0x0 CMakeFiles/fm_example.dir/home/pi/pico/pico-sdk/src/rp2_common/pico_platform/platform.c.obj
 .text.rp2040_chip_version
                0x00000000       0x4c CMakeFiles/fm_example.dir/home/pi/pico/pico-sdk/src/rp2_common/pico_platform/platform.c.obj
 .rodata.__func__.4250
                0x00000000       0x14 CMakeFiles/fm_example.dir/home/pi/pico/pico-sdk/src/rp2_common/pico_platform/platform.c.obj
 .rodata.rp2040_chip_version.str1.4
                0x00000000       0x75 CMakeFiles/fm_example.dir/home/pi/pico/pico-sdk/src/rp2_common/pico_platform/platform.c.obj
 .text          0x00000000        0x0 CMakeFiles/fm_example.dir/home/pi/pico/pico-sdk/src/rp2_common/hardware_sync/sync.c.obj
 .data          0x00000000        0x0 CMakeFiles/fm_example.dir/home/pi/pico/pico-sdk/src/rp2_common/hardware_sync/sync.c.obj
 .bss           0x00000000        0x0 CMakeFiles/fm_example.dir/home/pi/pico/pico-sdk/src/rp2_common/hardware_sync/sync.c.obj
 .text.spin_lock_init
                0x00000000       0x34 CMakeFiles/fm_example.dir/home/pi/pico/pico-sdk/src/rp2_common/hardware_sync/sync.c.obj
 .text.spin_lock_claim
                0x00000000       0x18 CMakeFiles/fm_example.dir/home/pi/pico/pico-sdk/src/rp2_common/hardware_sync/sync.c.obj
 .text.spin_lock_claim_mask
                0x00000000       0x1e CMakeFiles/fm_example.dir/home/pi/pico/pico-sdk/src/rp2_common/hardware_sync/sync.c.obj
 .text.spin_lock_unclaim
                0x00000000       0x24 CMakeFiles/fm_example.dir/home/pi/pico/pico-sdk/src/rp2_common/hardware_sync/sync.c.obj
 .text.spin_lock_is_claimed
                0x00000000       0x10 CMakeFiles/fm_example.dir/home/pi/pico/pico-sdk/src/rp2_common/hardware_sync/sync.c.obj
 .rodata.__func__.4359
                0x00000000        0xf CMakeFiles/fm_example.dir/home/pi/pico/pico-sdk/src/rp2_common/hardware_sync/sync.c.obj
 .rodata.spin_lock_claim.str1.4
                0x00000000       0x1f CMakeFiles/fm_example.dir/home/pi/pico/pico-sdk/src/rp2_common/hardware_sync/sync.c.obj
 .rodata.spin_lock_init.str1.4
                0x00000000       0x57 CMakeFiles/fm_example.dir/home/pi/pico/pico-sdk/src/rp2_common/hardware_sync/sync.c.obj
 .text          0x00000000        0x0 CMakeFiles/fm_example.dir/rds_parser/rds_parser.c.obj
 .data          0x00000000        0x0 CMakeFiles/fm_example.dir/rds_parser/rds_parser.c.obj
 .bss           0x00000000        0x0 CMakeFiles/fm_example.dir/rds_parser/rds_parser.c.obj
 .text          0x00000000        0x0 CMakeFiles/fm_example.dir/home/pi/pico/pico-sdk/src/rp2_common/pico_stdlib/stdlib.c.obj
 .data          0x00000000        0x0 CMakeFiles/fm_example.dir/home/pi/pico/pico-sdk/src/rp2_common/pico_stdlib/stdlib.c.obj
 .bss           0x00000000        0x0 CMakeFiles/fm_example.dir/home/pi/pico/pico-sdk/src/rp2_common/pico_stdlib/stdlib.c.obj
 .text.set_sys_clock_48mhz
                0x00000000       0x40 CMakeFiles/fm_example.dir/home/pi/pico/pico-sdk/src/rp2_common/pico_stdlib/stdlib.c.obj
 .text.set_sys_clock_pll
                0x00000000       0x78 CMakeFiles/fm_example.dir/home/pi/pico/pico-sdk/src/rp2_common/pico_stdlib/stdlib.c.obj
 .text.check_sys_clock_khz
                0x00000000       0xb4 CMakeFiles/fm_example.dir/home/pi/pico/pico-sdk/src/rp2_common/pico_stdlib/stdlib.c.obj
 .text.setup_default_uart
                0x00000000        0x8 CMakeFiles/fm_example.dir/home/pi/pico/pico-sdk/src/rp2_common/pico_stdlib/stdlib.c.obj
 .debug_info    0x00000000      0x4c3 CMakeFiles/fm_example.dir/home/pi/pico/pico-sdk/src/rp2_common/pico_stdlib/stdlib.c.obj
 .debug_abbrev  0x00000000      0x190 CMakeFiles/fm_example.dir/home/pi/pico/pico-sdk/src/rp2_common/pico_stdlib/stdlib.c.obj
 .debug_loc     0x00000000      0x27a CMakeFiles/fm_example.dir/home/pi/pico/pico-sdk/src/rp2_common/pico_stdlib/stdlib.c.obj
 .debug_aranges
                0x00000000       0x38 CMakeFiles/fm_example.dir/home/pi/pico/pico-sdk/src/rp2_common/pico_stdlib/stdlib.c.obj
 .debug_ranges  0x00000000       0x98 CMakeFiles/fm_example.dir/home/pi/pico/pico-sdk/src/rp2_common/pico_stdlib/stdlib.c.obj
 .debug_line    0x00000000      0x463 CMakeFiles/fm_example.dir/home/pi/pico/pico-sdk/src/rp2_common/pico_stdlib/stdlib.c.obj
 .debug_str     0x00000000      0x3d5 CMakeFiles/fm_example.dir/home/pi/pico/pico-sdk/src/rp2_common/pico_stdlib/stdlib.c.obj
 .comment       0x00000000       0x58 CMakeFiles/fm_example.dir/home/pi/pico/pico-sdk/src/rp2_common/pico_stdlib/stdlib.c.obj
 .debug_frame   0x00000000       0x90 CMakeFiles/fm_example.dir/home/pi/pico/pico-sdk/src/rp2_common/pico_stdlib/stdlib.c.obj
 .ARM.attributes
                0x00000000       0x32 CMakeFiles/fm_example.dir/home/pi/pico/pico-sdk/src/rp2_common/pico_stdlib/stdlib.c.obj
 .text          0x00000000        0x0 CMakeFiles/fm_example.dir/home/pi/pico/pico-sdk/src/rp2_common/hardware_gpio/gpio.c.obj
 .data          0x00000000        0x0 CMakeFiles/fm_example.dir/home/pi/pico/pico-sdk/src/rp2_common/hardware_gpio/gpio.c.obj
 .bss           0x00000000        0x0 CMakeFiles/fm_example.dir/home/pi/pico/pico-sdk/src/rp2_common/hardware_gpio/gpio.c.obj
 .text.gpio_get_pad
                0x00000000       0x28 CMakeFiles/fm_example.dir/home/pi/pico/pico-sdk/src/rp2_common/hardware_gpio/gpio.c.obj
 .text.gpio_get_function
                0x00000000       0x14 CMakeFiles/fm_example.dir/home/pi/pico/pico-sdk/src/rp2_common/hardware_gpio/gpio.c.obj
 .text.gpio_set_irqover
                0x00000000       0x24 CMakeFiles/fm_example.dir/home/pi/pico/pico-sdk/src/rp2_common/hardware_gpio/gpio.c.obj
 .text.gpio_set_inover
                0x00000000       0x24 CMakeFiles/fm_example.dir/home/pi/pico/pico-sdk/src/rp2_common/hardware_gpio/gpio.c.obj
 .text.gpio_set_outover
                0x00000000       0x24 CMakeFiles/fm_example.dir/home/pi/pico/pico-sdk/src/rp2_common/hardware_gpio/gpio.c.obj
 .text.gpio_set_oeover
                0x00000000       0x24 CMakeFiles/fm_example.dir/home/pi/pico/pico-sdk/src/rp2_common/hardware_gpio/gpio.c.obj
 .text.gpio_set_input_hysteresis_enabled
                0x00000000       0x30 CMakeFiles/fm_example.dir/home/pi/pico/pico-sdk/src/rp2_common/hardware_gpio/gpio.c.obj
 .text.gpio_is_input_hysteresis_enabled
                0x00000000       0x1c CMakeFiles/fm_example.dir/home/pi/pico/pico-sdk/src/rp2_common/hardware_gpio/gpio.c.obj
 .text.gpio_set_slew_rate
                0x00000000       0x20 CMakeFiles/fm_example.dir/home/pi/pico/pico-sdk/src/rp2_common/hardware_gpio/gpio.c.obj
 .text.gpio_get_slew_rate
                0x00000000       0x14 CMakeFiles/fm_example.dir/home/pi/pico/pico-sdk/src/rp2_common/hardware_gpio/gpio.c.obj
 .text.gpio_set_drive_strength
                0x00000000       0x20 CMakeFiles/fm_example.dir/home/pi/pico/pico-sdk/src/rp2_common/hardware_gpio/gpio.c.obj
 .text.gpio_get_drive_strength
                0x00000000       0x18 CMakeFiles/fm_example.dir/home/pi/pico/pico-sdk/src/rp2_common/hardware_gpio/gpio.c.obj
 .text.gpio_acknowledge_irq
                0x00000000       0x18 CMakeFiles/fm_example.dir/home/pi/pico/pico-sdk/src/rp2_common/hardware_gpio/gpio.c.obj
 .text._gpio_set_irq_enabled
                0x00000000       0x34 CMakeFiles/fm_example.dir/home/pi/pico/pico-sdk/src/rp2_common/hardware_gpio/gpio.c.obj
 .text.gpio_set_irq_enabled
                0x00000000       0x20 CMakeFiles/fm_example.dir/home/pi/pico/pico-sdk/src/rp2_common/hardware_gpio/gpio.c.obj
 .text.gpio_set_irq_enabled_with_callback
                0x00000000       0x30 CMakeFiles/fm_example.dir/home/pi/pico/pico-sdk/src/rp2_common/hardware_gpio/gpio.c.obj
 .text.gpio_set_dormant_irq_enabled
                0x00000000       0x10 CMakeFiles/fm_example.dir/home/pi/pico/pico-sdk/src/rp2_common/hardware_gpio/gpio.c.obj
 .text.gpio_irq_handler
                0x00000000       0x64 CMakeFiles/fm_example.dir/home/pi/pico/pico-sdk/src/rp2_common/hardware_gpio/gpio.c.obj
 .text.gpio_init_mask
                0x00000000       0x1e CMakeFiles/fm_example.dir/home/pi/pico/pico-sdk/src/rp2_common/hardware_gpio/gpio.c.obj
 .text.gpio_debug_pins_init
                0x00000000       0x18 CMakeFiles/fm_example.dir/home/pi/pico/pico-sdk/src/rp2_common/hardware_gpio/gpio.c.obj
 .bss._callbacks
                0x00000000        0x8 CMakeFiles/fm_example.dir/home/pi/pico/pico-sdk/src/rp2_common/hardware_gpio/gpio.c.obj
 .text          0x00000000        0x0 CMakeFiles/fm_example.dir/home/pi/pico/pico-sdk/src/rp2_common/hardware_uart/uart.c.obj
 .data          0x00000000        0x0 CMakeFiles/fm_example.dir/home/pi/pico/pico-sdk/src/rp2_common/hardware_uart/uart.c.obj
 .bss           0x00000000        0x0 CMakeFiles/fm_example.dir/home/pi/pico/pico-sdk/src/rp2_common/hardware_uart/uart.c.obj
 .text.uart_deinit
                0x00000000       0x20 CMakeFiles/fm_example.dir/home/pi/pico/pico-sdk/src/rp2_common/hardware_uart/uart.c.obj
 .text.uart_is_readable_within_us
                0x00000000       0x20 CMakeFiles/fm_example.dir/home/pi/pico/pico-sdk/src/rp2_common/hardware_uart/uart.c.obj
 .text          0x00000000        0x0 CMakeFiles/fm_example.dir/home/pi/pico/pico-sdk/src/rp2_common/hardware_divider/divider.S.obj
 .data          0x00000000        0x0 CMakeFiles/fm_example.dir/home/pi/pico/pico-sdk/src/rp2_common/hardware_divider/divider.S.obj
 .bss           0x00000000        0x0 CMakeFiles/fm_example.dir/home/pi/pico/pico-sdk/src/rp2_common/hardware_divider/divider.S.obj
 .text.hw_divider_divmod_s32
                0x00000000       0x18 CMakeFiles/fm_example.dir/home/pi/pico/pico-sdk/src/rp2_common/hardware_divider/divider.S.obj
 .text.hw_divider_divmod_u32
                0x00000000       0x18 CMakeFiles/fm_example.dir/home/pi/pico/pico-sdk/src/rp2_common/hardware_divider/divider.S.obj
 .text.hw_divider_save_state
                0x00000000       0x1c CMakeFiles/fm_example.dir/home/pi/pico/pico-sdk/src/rp2_common/hardware_divider/divider.S.obj
 .text.hw_divider_restore_state
                0x00000000       0x14 CMakeFiles/fm_example.dir/home/pi/pico/pico-sdk/src/rp2_common/hardware_divider/divider.S.obj
 .debug_line    0x00000000       0xc7 CMakeFiles/fm_example.dir/home/pi/pico/pico-sdk/src/rp2_common/hardware_divider/divider.S.obj
 .debug_info    0x00000000       0x22 CMakeFiles/fm_example.dir/home/pi/pico/pico-sdk/src/rp2_common/hardware_divider/divider.S.obj
 .debug_abbrev  0x00000000       0x12 CMakeFiles/fm_example.dir/home/pi/pico/pico-sdk/src/rp2_common/hardware_divider/divider.S.obj
 .debug_aranges
                0x00000000       0x38 CMakeFiles/fm_example.dir/home/pi/pico/pico-sdk/src/rp2_common/hardware_divider/divider.S.obj
 .debug_str     0x00000000       0x70 CMakeFiles/fm_example.dir/home/pi/pico/pico-sdk/src/rp2_common/hardware_divider/divider.S.obj
 .debug_ranges  0x00000000       0x30 CMakeFiles/fm_example.dir/home/pi/pico/pico-sdk/src/rp2_common/hardware_divider/divider.S.obj
 .ARM.attributes
                0x00000000       0x22 CMakeFiles/fm_example.dir/home/pi/pico/pico-sdk/src/rp2_common/hardware_divider/divider.S.obj
 .text          0x00000000        0x0 CMakeFiles/fm_example.dir/home/pi/pico/pico-sdk/src/common/pico_time/time.c.obj
 .data          0x00000000        0x0 CMakeFiles/fm_example.dir/home/pi/pico/pico-sdk/src/common/pico_time/time.c.obj
 .bss           0x00000000        0x0 CMakeFiles/fm_example.dir/home/pi/pico/pico-sdk/src/common/pico_time/time.c.obj
 .text.repeating_timer_callback
                0x00000000       0x40 CMakeFiles/fm_example.dir/home/pi/pico/pico-sdk/src/common/pico_time/time.c.obj
 .text.alarm_pool_dump_key
                0x00000000       0x70 CMakeFiles/fm_example.dir/home/pi/pico/pico-sdk/src/common/pico_time/time.c.obj
 .text.alarm_pool_create
                0x00000000       0x40 CMakeFiles/fm_example.dir/home/pi/pico/pico-sdk/src/common/pico_time/time.c.obj
 .text.alarm_pool_destroy
                0x00000000       0x78 CMakeFiles/fm_example.dir/home/pi/pico/pico-sdk/src/common/pico_time/time.c.obj
 .text.alarm_pool_hardware_alarm_num
                0x00000000        0x4 CMakeFiles/fm_example.dir/home/pi/pico/pico-sdk/src/common/pico_time/time.c.obj
 .text.alarm_pool_add_repeating_timer_us
                0x00000000       0x9c CMakeFiles/fm_example.dir/home/pi/pico/pico-sdk/src/common/pico_time/time.c.obj
 .text.cancel_repeating_timer
                0x00000000       0x1a CMakeFiles/fm_example.dir/home/pi/pico/pico-sdk/src/common/pico_time/time.c.obj
 .text.alarm_pool_dump
                0x00000000       0x34 CMakeFiles/fm_example.dir/home/pi/pico/pico-sdk/src/common/pico_time/time.c.obj
 .rodata.__func__.6259
                0x00000000       0x13 CMakeFiles/fm_example.dir/home/pi/pico/pico-sdk/src/common/pico_time/time.c.obj
 .rodata.__func__.6297
                0x00000000       0x19 CMakeFiles/fm_example.dir/home/pi/pico/pico-sdk/src/common/pico_time/time.c.obj
 .rodata.alarm_pool_destroy.str1.4
                0x00000000       0x30 CMakeFiles/fm_example.dir/home/pi/pico/pico-sdk/src/common/pico_time/time.c.obj
 .rodata.at_the_end_of_time
                0x00000000        0x8 CMakeFiles/fm_example.dir/home/pi/pico/pico-sdk/src/common/pico_time/time.c.obj
 .rodata.nil_time
                0x00000000        0x8 CMakeFiles/fm_example.dir/home/pi/pico/pico-sdk/src/common/pico_time/time.c.obj
 .text          0x00000000        0x0 CMakeFiles/fm_example.dir/home/pi/pico/pico-sdk/src/common/pico_time/timeout_helper.c.obj
 .data          0x00000000        0x0 CMakeFiles/fm_example.dir/home/pi/pico/pico-sdk/src/common/pico_time/timeout_helper.c.obj
 .bss           0x00000000        0x0 CMakeFiles/fm_example.dir/home/pi/pico/pico-sdk/src/common/pico_time/timeout_helper.c.obj
 .text.check_single_timeout_us
                0x00000000       0x2c CMakeFiles/fm_example.dir/home/pi/pico/pico-sdk/src/common/pico_time/timeout_helper.c.obj
 .text.check_per_iteration_timeout_us
                0x00000000       0x84 CMakeFiles/fm_example.dir/home/pi/pico/pico-sdk/src/common/pico_time/timeout_helper.c.obj
 .text.init_single_timeout_until
                0x00000000        0xc CMakeFiles/fm_example.dir/home/pi/pico/pico-sdk/src/common/pico_time/timeout_helper.c.obj
 .text.init_per_iteration_timeout_us
                0x00000000       0x60 CMakeFiles/fm_example.dir/home/pi/pico/pico-sdk/src/common/pico_time/timeout_helper.c.obj
 .rodata.__func__.4173
                0x00000000       0x15 CMakeFiles/fm_example.dir/home/pi/pico/pico-sdk/src/common/pico_time/timeout_helper.c.obj
 .rodata.check_per_iteration_timeout_us.str1.4
                0x00000000       0x5d CMakeFiles/fm_example.dir/home/pi/pico/pico-sdk/src/common/pico_time/timeout_helper.c.obj
 .debug_info    0x00000000      0x702 CMakeFiles/fm_example.dir/home/pi/pico/pico-sdk/src/common/pico_time/timeout_helper.c.obj
 .debug_abbrev  0x00000000      0x210 CMakeFiles/fm_example.dir/home/pi/pico/pico-sdk/src/common/pico_time/timeout_helper.c.obj
 .debug_loc     0x00000000      0x38b CMakeFiles/fm_example.dir/home/pi/pico/pico-sdk/src/common/pico_time/timeout_helper.c.obj
 .debug_aranges
                0x00000000       0x38 CMakeFiles/fm_example.dir/home/pi/pico/pico-sdk/src/common/pico_time/timeout_helper.c.obj
 .debug_ranges  0x00000000      0x148 CMakeFiles/fm_example.dir/home/pi/pico/pico-sdk/src/common/pico_time/timeout_helper.c.obj
 .debug_line    0x00000000      0x31f CMakeFiles/fm_example.dir/home/pi/pico/pico-sdk/src/common/pico_time/timeout_helper.c.obj
 .debug_str     0x00000000      0x402 CMakeFiles/fm_example.dir/home/pi/pico/pico-sdk/src/common/pico_time/timeout_helper.c.obj
 .comment       0x00000000       0x58 CMakeFiles/fm_example.dir/home/pi/pico/pico-sdk/src/common/pico_time/timeout_helper.c.obj
 .debug_frame   0x00000000       0x6c CMakeFiles/fm_example.dir/home/pi/pico/pico-sdk/src/common/pico_time/timeout_helper.c.obj
 .ARM.attributes
                0x00000000       0x32 CMakeFiles/fm_example.dir/home/pi/pico/pico-sdk/src/common/pico_time/timeout_helper.c.obj
 .text          0x00000000        0x0 CMakeFiles/fm_example.dir/home/pi/pico/pico-sdk/src/rp2_common/hardware_timer/timer.c.obj
 .data          0x00000000        0x0 CMakeFiles/fm_example.dir/home/pi/pico/pico-sdk/src/rp2_common/hardware_timer/timer.c.obj
 .bss           0x00000000        0x0 CMakeFiles/fm_example.dir/home/pi/pico/pico-sdk/src/rp2_common/hardware_timer/timer.c.obj
 .text.hardware_alarm_unclaim
                0x00000000       0x10 CMakeFiles/fm_example.dir/home/pi/pico/pico-sdk/src/rp2_common/hardware_timer/timer.c.obj
 .text.hardware_alarm_is_claimed
                0x00000000       0x10 CMakeFiles/fm_example.dir/home/pi/pico/pico-sdk/src/rp2_common/hardware_timer/timer.c.obj
 .text.busy_wait_us_32
                0x00000000       0x24 CMakeFiles/fm_example.dir/home/pi/pico/pico-sdk/src/rp2_common/hardware_timer/timer.c.obj
 .text.busy_wait_ms
                0x00000000       0x30 CMakeFiles/fm_example.dir/home/pi/pico/pico-sdk/src/rp2_common/hardware_timer/timer.c.obj
 .text          0x00000000        0x0 CMakeFiles/fm_example.dir/home/pi/pico/pico-sdk/src/common/pico_sync/sem.c.obj
 .data          0x00000000        0x0 CMakeFiles/fm_example.dir/home/pi/pico/pico-sdk/src/common/pico_sync/sem.c.obj
 .bss           0x00000000        0x0 CMakeFiles/fm_example.dir/home/pi/pico/pico-sdk/src/common/pico_sync/sem.c.obj
 .text.sem_init
                0x00000000       0x1e CMakeFiles/fm_example.dir/home/pi/pico/pico-sdk/src/common/pico_sync/sem.c.obj
 .time_critical.sem_available
                0x00000000        0x6 CMakeFiles/fm_example.dir/home/pi/pico/pico-sdk/src/common/pico_sync/sem.c.obj
 .time_critical.sem_acquire_blocking
                0x00000000       0x42 CMakeFiles/fm_example.dir/home/pi/pico/pico-sdk/src/common/pico_sync/sem.c.obj
 .time_critical.sem_acquire_block_until
                0x00000000       0x58 CMakeFiles/fm_example.dir/home/pi/pico/pico-sdk/src/common/pico_sync/sem.c.obj
 .time_critical.sem_acquire_timeout_ms
                0x00000000       0x6c CMakeFiles/fm_example.dir/home/pi/pico/pico-sdk/src/common/pico_sync/sem.c.obj
 .time_critical.sem_acquire_timeout_us
                0x00000000       0x5c CMakeFiles/fm_example.dir/home/pi/pico/pico-sdk/src/common/pico_sync/sem.c.obj
 .time_critical.sem_release
                0x00000000       0x4a CMakeFiles/fm_example.dir/home/pi/pico/pico-sdk/src/common/pico_sync/sem.c.obj
 .time_critical.sem_reset
                0x00000000       0x68 CMakeFiles/fm_example.dir/home/pi/pico/pico-sdk/src/common/pico_sync/sem.c.obj
 .rodata.__func__.4173
                0x00000000       0x15 CMakeFiles/fm_example.dir/home/pi/pico/pico-sdk/src/common/pico_sync/sem.c.obj
 .rodata.__func__.4594
                0x00000000        0xa CMakeFiles/fm_example.dir/home/pi/pico/pico-sdk/src/common/pico_sync/sem.c.obj
 .rodata.str1.4
                0x00000000       0xbe CMakeFiles/fm_example.dir/home/pi/pico/pico-sdk/src/common/pico_sync/sem.c.obj
 .debug_info    0x00000000      0xf32 CMakeFiles/fm_example.dir/home/pi/pico/pico-sdk/src/common/pico_sync/sem.c.obj
 .debug_abbrev  0x00000000      0x2ee CMakeFiles/fm_example.dir/home/pi/pico/pico-sdk/src/common/pico_sync/sem.c.obj
 .debug_loc     0x00000000      0x7de CMakeFiles/fm_example.dir/home/pi/pico/pico-sdk/src/common/pico_sync/sem.c.obj
 .debug_aranges
                0x00000000       0x58 CMakeFiles/fm_example.dir/home/pi/pico/pico-sdk/src/common/pico_sync/sem.c.obj
 .debug_ranges  0x00000000      0x138 CMakeFiles/fm_example.dir/home/pi/pico/pico-sdk/src/common/pico_sync/sem.c.obj
 .debug_line    0x00000000      0x422 CMakeFiles/fm_example.dir/home/pi/pico/pico-sdk/src/common/pico_sync/sem.c.obj
 .debug_str     0x00000000      0x4ec CMakeFiles/fm_example.dir/home/pi/pico/pico-sdk/src/common/pico_sync/sem.c.obj
 .comment       0x00000000       0x58 CMakeFiles/fm_example.dir/home/pi/pico/pico-sdk/src/common/pico_sync/sem.c.obj
 .debug_frame   0x00000000       0xd8 CMakeFiles/fm_example.dir/home/pi/pico/pico-sdk/src/common/pico_sync/sem.c.obj
 .ARM.attributes
                0x00000000       0x32 CMakeFiles/fm_example.dir/home/pi/pico/pico-sdk/src/common/pico_sync/sem.c.obj
 .text          0x00000000        0x0 CMakeFiles/fm_example.dir/home/pi/pico/pico-sdk/src/common/pico_sync/lock_core.c.obj
 .data          0x00000000        0x0 CMakeFiles/fm_example.dir/home/pi/pico/pico-sdk/src/common/pico_sync/lock_core.c.obj
 .bss           0x00000000        0x0 CMakeFiles/fm_example.dir/home/pi/pico/pico-sdk/src/common/pico_sync/lock_core.c.obj
 .text          0x00000000        0x0 CMakeFiles/fm_example.dir/home/pi/pico/pico-sdk/src/common/pico_sync/mutex.c.obj
 .data          0x00000000        0x0 CMakeFiles/fm_example.dir/home/pi/pico/pico-sdk/src/common/pico_sync/mutex.c.obj
 .bss           0x00000000        0x0 CMakeFiles/fm_example.dir/home/pi/pico/pico-sdk/src/common/pico_sync/mutex.c.obj
 .time_critical.mutex_enter_timeout_us
                0x00000000       0x5c CMakeFiles/fm_example.dir/home/pi/pico/pico-sdk/src/common/pico_sync/mutex.c.obj
 .text          0x00000000        0x0 CMakeFiles/fm_example.dir/home/pi/pico/pico-sdk/src/common/pico_sync/critical_section.c.obj
 .data          0x00000000        0x0 CMakeFiles/fm_example.dir/home/pi/pico/pico-sdk/src/common/pico_sync/critical_section.c.obj
 .bss           0x00000000        0x0 CMakeFiles/fm_example.dir/home/pi/pico/pico-sdk/src/common/pico_sync/critical_section.c.obj
 .text.critical_section_deinit
                0x00000000       0x20 CMakeFiles/fm_example.dir/home/pi/pico/pico-sdk/src/common/pico_sync/critical_section.c.obj
 .text          0x00000000        0x0 CMakeFiles/fm_example.dir/home/pi/pico/pico-sdk/src/common/pico_util/datetime.c.obj
 .data          0x00000000        0x0 CMakeFiles/fm_example.dir/home/pi/pico/pico-sdk/src/common/pico_util/datetime.c.obj
 .bss           0x00000000        0x0 CMakeFiles/fm_example.dir/home/pi/pico/pico-sdk/src/common/pico_util/datetime.c.obj
 .text.datetime_to_str
                0x00000000       0x64 CMakeFiles/fm_example.dir/home/pi/pico/pico-sdk/src/common/pico_util/datetime.c.obj
 .rodata.DATETIME_DOWS
                0x00000000       0x1c CMakeFiles/fm_example.dir/home/pi/pico/pico-sdk/src/common/pico_util/datetime.c.obj
 .rodata.DATETIME_MONTHS
                0x00000000       0x30 CMakeFiles/fm_example.dir/home/pi/pico/pico-sdk/src/common/pico_util/datetime.c.obj
 .rodata.datetime_to_str.str1.4
                0x00000000       0x19 CMakeFiles/fm_example.dir/home/pi/pico/pico-sdk/src/common/pico_util/datetime.c.obj
 .rodata.str1.4
                0x00000000       0xad CMakeFiles/fm_example.dir/home/pi/pico/pico-sdk/src/common/pico_util/datetime.c.obj
 .debug_info    0x00000000      0x9f9 CMakeFiles/fm_example.dir/home/pi/pico/pico-sdk/src/common/pico_util/datetime.c.obj
 .debug_abbrev  0x00000000      0x1ed CMakeFiles/fm_example.dir/home/pi/pico/pico-sdk/src/common/pico_util/datetime.c.obj
 .debug_loc     0x00000000       0x63 CMakeFiles/fm_example.dir/home/pi/pico/pico-sdk/src/common/pico_util/datetime.c.obj
 .debug_aranges
                0x00000000       0x20 CMakeFiles/fm_example.dir/home/pi/pico/pico-sdk/src/common/pico_util/datetime.c.obj
 .debug_ranges  0x00000000       0x10 CMakeFiles/fm_example.dir/home/pi/pico/pico-sdk/src/common/pico_util/datetime.c.obj
 .debug_line    0x00000000      0x182 CMakeFiles/fm_example.dir/home/pi/pico/pico-sdk/src/common/pico_util/datetime.c.obj
 .debug_str     0x00000000      0x5ee CMakeFiles/fm_example.dir/home/pi/pico/pico-sdk/src/common/pico_util/datetime.c.obj
 .comment       0x00000000       0x58 CMakeFiles/fm_example.dir/home/pi/pico/pico-sdk/src/common/pico_util/datetime.c.obj
 .debug_frame   0x00000000       0x38 CMakeFiles/fm_example.dir/home/pi/pico/pico-sdk/src/common/pico_util/datetime.c.obj
 .ARM.attributes
                0x00000000       0x32 CMakeFiles/fm_example.dir/home/pi/pico/pico-sdk/src/common/pico_util/datetime.c.obj
 .text          0x00000000        0x0 CMakeFiles/fm_example.dir/home/pi/pico/pico-sdk/src/common/pico_util/pheap.c.obj
 .data          0x00000000        0x0 CMakeFiles/fm_example.dir/home/pi/pico/pico-sdk/src/common/pico_util/pheap.c.obj
 .bss           0x00000000        0x0 CMakeFiles/fm_example.dir/home/pi/pico/pico-sdk/src/common/pico_util/pheap.c.obj
 .text.ph_dump_node
                0x00000000       0xa4 CMakeFiles/fm_example.dir/home/pi/pico/pico-sdk/src/common/pico_util/pheap.c.obj
 .text.ph_create
                0x00000000       0x2c CMakeFiles/fm_example.dir/home/pi/pico/pico-sdk/src/common/pico_util/pheap.c.obj
 .text.ph_destroy
                0x00000000       0x12 CMakeFiles/fm_example.dir/home/pi/pico/pico-sdk/src/common/pico_util/pheap.c.obj
 .text.ph_dump  0x00000000       0x24 CMakeFiles/fm_example.dir/home/pi/pico/pico-sdk/src/common/pico_util/pheap.c.obj
 .rodata.ph_dump.str1.4
                0x00000000        0xf CMakeFiles/fm_example.dir/home/pi/pico/pico-sdk/src/common/pico_util/pheap.c.obj
 .rodata.ph_dump_node.str1.4
                0x00000000       0x15 CMakeFiles/fm_example.dir/home/pi/pico/pico-sdk/src/common/pico_util/pheap.c.obj
 .text          0x00000000        0x0 CMakeFiles/fm_example.dir/home/pi/pico/pico-sdk/src/common/pico_util/queue.c.obj
 .data          0x00000000        0x0 CMakeFiles/fm_example.dir/home/pi/pico/pico-sdk/src/common/pico_util/queue.c.obj
 .bss           0x00000000        0x0 CMakeFiles/fm_example.dir/home/pi/pico/pico-sdk/src/common/pico_util/queue.c.obj
 .text.queue_add_internal
                0x00000000       0xa0 CMakeFiles/fm_example.dir/home/pi/pico/pico-sdk/src/common/pico_util/queue.c.obj
 .text.queue_remove_internal
                0x00000000       0xa4 CMakeFiles/fm_example.dir/home/pi/pico/pico-sdk/src/common/pico_util/queue.c.obj
 .text.queue_peek_internal
                0x00000000       0x94 CMakeFiles/fm_example.dir/home/pi/pico/pico-sdk/src/common/pico_util/queue.c.obj
 .text.queue_init_with_spinlock
                0x00000000       0x24 CMakeFiles/fm_example.dir/home/pi/pico/pico-sdk/src/common/pico_util/queue.c.obj
 .text.queue_free
                0x00000000        0xa CMakeFiles/fm_example.dir/home/pi/pico/pico-sdk/src/common/pico_util/queue.c.obj
 .text.queue_try_add
                0x00000000        0xa CMakeFiles/fm_example.dir/home/pi/pico/pico-sdk/src/common/pico_util/queue.c.obj
 .text.queue_try_remove
                0x00000000        0xa CMakeFiles/fm_example.dir/home/pi/pico/pico-sdk/src/common/pico_util/queue.c.obj
 .text.queue_try_peek
                0x00000000        0xa CMakeFiles/fm_example.dir/home/pi/pico/pico-sdk/src/common/pico_util/queue.c.obj
 .text.queue_add_blocking
                0x00000000        0xa CMakeFiles/fm_example.dir/home/pi/pico/pico-sdk/src/common/pico_util/queue.c.obj
 .text.queue_remove_blocking
                0x00000000        0xa CMakeFiles/fm_example.dir/home/pi/pico/pico-sdk/src/common/pico_util/queue.c.obj
 .text.queue_peek_blocking
                0x00000000        0xa CMakeFiles/fm_example.dir/home/pi/pico/pico-sdk/src/common/pico_util/queue.c.obj
 .rodata.__func__.5391
                0x00000000        0xc CMakeFiles/fm_example.dir/home/pi/pico/pico-sdk/src/common/pico_util/queue.c.obj
 .rodata.queue_add_internal.str1.4
                0x00000000       0x50 CMakeFiles/fm_example.dir/home/pi/pico/pico-sdk/src/common/pico_util/queue.c.obj
 .debug_info    0x00000000     0x179f CMakeFiles/fm_example.dir/home/pi/pico/pico-sdk/src/common/pico_util/queue.c.obj
 .debug_abbrev  0x00000000      0x397 CMakeFiles/fm_example.dir/home/pi/pico/pico-sdk/src/common/pico_util/queue.c.obj
 .debug_loc     0x00000000      0xa59 CMakeFiles/fm_example.dir/home/pi/pico/pico-sdk/src/common/pico_util/queue.c.obj
 .debug_aranges
                0x00000000       0x70 CMakeFiles/fm_example.dir/home/pi/pico/pico-sdk/src/common/pico_util/queue.c.obj
 .debug_ranges  0x00000000       0xf0 CMakeFiles/fm_example.dir/home/pi/pico/pico-sdk/src/common/pico_util/queue.c.obj
 .debug_line    0x00000000      0x4af CMakeFiles/fm_example.dir/home/pi/pico/pico-sdk/src/common/pico_util/queue.c.obj
 .debug_str     0x00000000      0x8a6 CMakeFiles/fm_example.dir/home/pi/pico/pico-sdk/src/common/pico_util/queue.c.obj
 .comment       0x00000000       0x58 CMakeFiles/fm_example.dir/home/pi/pico/pico-sdk/src/common/pico_util/queue.c.obj
 .debug_frame   0x00000000      0x12c CMakeFiles/fm_example.dir/home/pi/pico/pico-sdk/src/common/pico_util/queue.c.obj
 .ARM.attributes
                0x00000000       0x32 CMakeFiles/fm_example.dir/home/pi/pico/pico-sdk/src/common/pico_util/queue.c.obj
 .text          0x00000000        0x0 CMakeFiles/fm_example.dir/home/pi/pico/pico-sdk/src/rp2_common/pico_runtime/runtime.c.obj
 .data          0x00000000        0x0 CMakeFiles/fm_example.dir/home/pi/pico/pico-sdk/src/rp2_common/pico_runtime/runtime.c.obj
 .bss           0x00000000        0x0 CMakeFiles/fm_example.dir/home/pi/pico/pico-sdk/src/rp2_common/pico_runtime/runtime.c.obj
 .text.runtime_install_stack_guard
                0x00000000       0x40 CMakeFiles/fm_example.dir/home/pi/pico/pico-sdk/src/rp2_common/pico_runtime/runtime.c.obj
 .text._sbrk    0x00000000       0x38 CMakeFiles/fm_example.dir/home/pi/pico/pico-sdk/src/rp2_common/pico_runtime/runtime.c.obj
 .text.panic_unsupported
                0x00000000        0xc CMakeFiles/fm_example.dir/home/pi/pico/pico-sdk/src/rp2_common/pico_runtime/runtime.c.obj
 .text.hard_assertion_failure
                0x00000000        0xc CMakeFiles/fm_example.dir/home/pi/pico/pico-sdk/src/rp2_common/pico_runtime/runtime.c.obj
 .bss.heap_end.5754
                0x00000000        0x4 CMakeFiles/fm_example.dir/home/pi/pico/pico-sdk/src/rp2_common/pico_runtime/runtime.c.obj
 .rodata.hard_assertion_failure.str1.4
                0x00000000        0xc CMakeFiles/fm_example.dir/home/pi/pico/pico-sdk/src/rp2_common/pico_runtime/runtime.c.obj
 .rodata.panic_unsupported.str1.4
                0x00000000        0xe CMakeFiles/fm_example.dir/home/pi/pico/pico-sdk/src/rp2_common/pico_runtime/runtime.c.obj
 .text          0x00000000        0x0 CMakeFiles/fm_example.dir/home/pi/pico/pico-sdk/src/rp2_common/hardware_clocks/clocks.c.obj
 .data          0x00000000        0x0 CMakeFiles/fm_example.dir/home/pi/pico/pico-sdk/src/rp2_common/hardware_clocks/clocks.c.obj
 .bss           0x00000000        0x0 CMakeFiles/fm_example.dir/home/pi/pico/pico-sdk/src/rp2_common/hardware_clocks/clocks.c.obj
 .text.clock_stop
                0x00000000       0x2c CMakeFiles/fm_example.dir/home/pi/pico/pico-sdk/src/rp2_common/hardware_clocks/clocks.c.obj
 .text.clocks_handle_resus
                0x00000000       0x80 CMakeFiles/fm_example.dir/home/pi/pico/pico-sdk/src/rp2_common/hardware_clocks/clocks.c.obj
 .text.clocks_irq_handler
                0x00000000       0x2c CMakeFiles/fm_example.dir/home/pi/pico/pico-sdk/src/rp2_common/hardware_clocks/clocks.c.obj
 .text.clock_set_reported_hz
                0x00000000        0xc CMakeFiles/fm_example.dir/home/pi/pico/pico-sdk/src/rp2_common/hardware_clocks/clocks.c.obj
 .text.frequency_count_khz
                0x00000000       0x40 CMakeFiles/fm_example.dir/home/pi/pico/pico-sdk/src/rp2_common/hardware_clocks/clocks.c.obj
 .text.clocks_enable_resus
                0x00000000       0x34 CMakeFiles/fm_example.dir/home/pi/pico/pico-sdk/src/rp2_common/hardware_clocks/clocks.c.obj
 .text.clock_gpio_init
                0x00000000       0x4c CMakeFiles/fm_example.dir/home/pi/pico/pico-sdk/src/rp2_common/hardware_clocks/clocks.c.obj
 .text.clock_configure_gpin
                0x00000000       0x50 CMakeFiles/fm_example.dir/home/pi/pico/pico-sdk/src/rp2_common/hardware_clocks/clocks.c.obj
 .bss._resus_callback
                0x00000000        0x4 CMakeFiles/fm_example.dir/home/pi/pico/pico-sdk/src/rp2_common/hardware_clocks/clocks.c.obj
 .rodata.__func__.4670
                0x00000000       0x14 CMakeFiles/fm_example.dir/home/pi/pico/pico-sdk/src/rp2_common/hardware_clocks/clocks.c.obj
 .rodata.clocks_handle_resus.str1.4
                0x00000000       0x8b CMakeFiles/fm_example.dir/home/pi/pico/pico-sdk/src/rp2_common/hardware_clocks/clocks.c.obj
 .rodata.clocks_irq_handler.str1.4
                0x00000000       0x17 CMakeFiles/fm_example.dir/home/pi/pico/pico-sdk/src/rp2_common/hardware_clocks/clocks.c.obj
 .rodata.gpin0_src
                0x00000000        0xa CMakeFiles/fm_example.dir/home/pi/pico/pico-sdk/src/rp2_common/hardware_clocks/clocks.c.obj
 .text          0x00000000        0x0 CMakeFiles/fm_example.dir/home/pi/pico/pico-sdk/src/rp2_common/hardware_irq/irq.c.obj
 .data          0x00000000        0x0 CMakeFiles/fm_example.dir/home/pi/pico/pico-sdk/src/rp2_common/hardware_irq/irq.c.obj
 .bss           0x00000000        0x0 CMakeFiles/fm_example.dir/home/pi/pico/pico-sdk/src/rp2_common/hardware_irq/irq.c.obj
 .text.irq_get_exclusive_handler
                0x00000000       0x4c CMakeFiles/fm_example.dir/home/pi/pico/pico-sdk/src/rp2_common/hardware_irq/irq.c.obj
 .text.irq_add_shared_handler
                0x00000000      0x224 CMakeFiles/fm_example.dir/home/pi/pico/pico-sdk/src/rp2_common/hardware_irq/irq.c.obj
 .rodata.__func__.4706
                0x00000000       0x17 CMakeFiles/fm_example.dir/home/pi/pico/pico-sdk/src/rp2_common/hardware_irq/irq.c.obj
 .text          0x00000000        0x0 CMakeFiles/fm_example.dir/home/pi/pico/pico-sdk/src/rp2_common/hardware_irq/irq_handler_chain.S.obj
 .bss           0x00000000        0x0 CMakeFiles/fm_example.dir/home/pi/pico/pico-sdk/src/rp2_common/hardware_irq/irq_handler_chain.S.obj
 .text          0x00000000        0x0 CMakeFiles/fm_example.dir/home/pi/pico/pico-sdk/src/rp2_common/hardware_pll/pll.c.obj
 .data          0x00000000        0x0 CMakeFiles/fm_example.dir/home/pi/pico/pico-sdk/src/rp2_common/hardware_pll/pll.c.obj
 .bss           0x00000000        0x0 CMakeFiles/fm_example.dir/home/pi/pico/pico-sdk/src/rp2_common/hardware_pll/pll.c.obj
 .text.pll_deinit
                0x00000000        0x6 CMakeFiles/fm_example.dir/home/pi/pico/pico-sdk/src/rp2_common/hardware_pll/pll.c.obj
 .text          0x00000000        0x0 CMakeFiles/fm_example.dir/home/pi/pico/pico-sdk/src/rp2_common/hardware_vreg/vreg.c.obj
 .data          0x00000000        0x0 CMakeFiles/fm_example.dir/home/pi/pico/pico-sdk/src/rp2_common/hardware_vreg/vreg.c.obj
 .bss           0x00000000        0x0 CMakeFiles/fm_example.dir/home/pi/pico/pico-sdk/src/rp2_common/hardware_vreg/vreg.c.obj
 .text.vreg_set_voltage
                0x00000000       0x1c CMakeFiles/fm_example.dir/home/pi/pico/pico-sdk/src/rp2_common/hardware_vreg/vreg.c.obj
 .debug_info    0x00000000      0x217 CMakeFiles/fm_example.dir/home/pi/pico/pico-sdk/src/rp2_common/hardware_vreg/vreg.c.obj
 .debug_abbrev  0x00000000       0xfc CMakeFiles/fm_example.dir/home/pi/pico/pico-sdk/src/rp2_common/hardware_vreg/vreg.c.obj
 .debug_loc     0x00000000       0x8c CMakeFiles/fm_example.dir/home/pi/pico/pico-sdk/src/rp2_common/hardware_vreg/vreg.c.obj
 .debug_aranges
                0x00000000       0x20 CMakeFiles/fm_example.dir/home/pi/pico/pico-sdk/src/rp2_common/hardware_vreg/vreg.c.obj
 .debug_ranges  0x00000000       0x10 CMakeFiles/fm_example.dir/home/pi/pico/pico-sdk/src/rp2_common/hardware_vreg/vreg.c.obj
 .debug_line    0x00000000      0x220 CMakeFiles/fm_example.dir/home/pi/pico/pico-sdk/src/rp2_common/hardware_vreg/vreg.c.obj
 .debug_str     0x00000000      0x331 CMakeFiles/fm_example.dir/home/pi/pico/pico-sdk/src/rp2_common/hardware_vreg/vreg.c.obj
 .comment       0x00000000       0x58 CMakeFiles/fm_example.dir/home/pi/pico/pico-sdk/src/rp2_common/hardware_vreg/vreg.c.obj
 .debug_frame   0x00000000       0x20 CMakeFiles/fm_example.dir/home/pi/pico/pico-sdk/src/rp2_common/hardware_vreg/vreg.c.obj
 .ARM.attributes
                0x00000000       0x32 CMakeFiles/fm_example.dir/home/pi/pico/pico-sdk/src/rp2_common/hardware_vreg/vreg.c.obj
 .text          0x00000000        0x0 CMakeFiles/fm_example.dir/home/pi/pico/pico-sdk/src/rp2_common/hardware_watchdog/watchdog.c.obj
 .data          0x00000000        0x0 CMakeFiles/fm_example.dir/home/pi/pico/pico-sdk/src/rp2_common/hardware_watchdog/watchdog.c.obj
 .bss           0x00000000        0x0 CMakeFiles/fm_example.dir/home/pi/pico/pico-sdk/src/rp2_common/hardware_watchdog/watchdog.c.obj
 .text.watchdog_get_count
                0x00000000       0x10 CMakeFiles/fm_example.dir/home/pi/pico/pico-sdk/src/rp2_common/hardware_watchdog/watchdog.c.obj
 .text.watchdog_enable
                0x00000000       0x14 CMakeFiles/fm_example.dir/home/pi/pico/pico-sdk/src/rp2_common/hardware_watchdog/watchdog.c.obj
 .text.watchdog_caused_reboot
                0x00000000       0x10 CMakeFiles/fm_example.dir/home/pi/pico/pico-sdk/src/rp2_common/hardware_watchdog/watchdog.c.obj
 .text          0x00000000        0x0 CMakeFiles/fm_example.dir/home/pi/pico/pico-sdk/src/rp2_common/hardware_xosc/xosc.c.obj
 .data          0x00000000        0x0 CMakeFiles/fm_example.dir/home/pi/pico/pico-sdk/src/rp2_common/hardware_xosc/xosc.c.obj
 .bss           0x00000000        0x0 CMakeFiles/fm_example.dir/home/pi/pico/pico-sdk/src/rp2_common/hardware_xosc/xosc.c.obj
 .text.xosc_disable
                0x00000000       0x24 CMakeFiles/fm_example.dir/home/pi/pico/pico-sdk/src/rp2_common/hardware_xosc/xosc.c.obj
 .text.xosc_dormant
                0x00000000       0x18 CMakeFiles/fm_example.dir/home/pi/pico/pico-sdk/src/rp2_common/hardware_xosc/xosc.c.obj
 .text          0x00000000        0x0 CMakeFiles/fm_example.dir/home/pi/pico/pico-sdk/src/rp2_common/pico_printf/printf.c.obj
 .data          0x00000000        0x0 CMakeFiles/fm_example.dir/home/pi/pico/pico-sdk/src/rp2_common/pico_printf/printf.c.obj
 .bss           0x00000000        0x0 CMakeFiles/fm_example.dir/home/pi/pico/pico-sdk/src/rp2_common/pico_printf/printf.c.obj
 .text.__wrap_snprintf
                0x00000000       0x28 CMakeFiles/fm_example.dir/home/pi/pico/pico-sdk/src/rp2_common/pico_printf/printf.c.obj
 .text.__wrap_vsnprintf
                0x00000000       0x1c CMakeFiles/fm_example.dir/home/pi/pico/pico-sdk/src/rp2_common/pico_printf/printf.c.obj
 .data          0x00000000        0x0 CMakeFiles/fm_example.dir/home/pi/pico/pico-sdk/src/rp2_common/pico_bit_ops/bit_ops_aeabi.S.obj
 .bss           0x00000000        0x0 CMakeFiles/fm_example.dir/home/pi/pico/pico-sdk/src/rp2_common/pico_bit_ops/bit_ops_aeabi.S.obj
 .text.clzsi    0x00000000        0xc CMakeFiles/fm_example.dir/home/pi/pico/pico-sdk/src/rp2_common/pico_bit_ops/bit_ops_aeabi.S.obj
 .text.ctzsi    0x00000000        0xc CMakeFiles/fm_example.dir/home/pi/pico/pico-sdk/src/rp2_common/pico_bit_ops/bit_ops_aeabi.S.obj
 .text.popcountsi
                0x00000000        0xc CMakeFiles/fm_example.dir/home/pi/pico/pico-sdk/src/rp2_common/pico_bit_ops/bit_ops_aeabi.S.obj
 .text.clzdi    0x00000000       0x18 CMakeFiles/fm_example.dir/home/pi/pico/pico-sdk/src/rp2_common/pico_bit_ops/bit_ops_aeabi.S.obj
 .text.ctzdi    0x00000000       0x18 CMakeFiles/fm_example.dir/home/pi/pico/pico-sdk/src/rp2_common/pico_bit_ops/bit_ops_aeabi.S.obj
 .text.popcountdi
                0x00000000       0x18 CMakeFiles/fm_example.dir/home/pi/pico/pico-sdk/src/rp2_common/pico_bit_ops/bit_ops_aeabi.S.obj
 .text.reverse32
                0x00000000        0xc CMakeFiles/fm_example.dir/home/pi/pico/pico-sdk/src/rp2_common/pico_bit_ops/bit_ops_aeabi.S.obj
 .text.__rev    0x00000000        0xc CMakeFiles/fm_example.dir/home/pi/pico/pico-sdk/src/rp2_common/pico_bit_ops/bit_ops_aeabi.S.obj
 .text.__revll  0x00000000       0x18 CMakeFiles/fm_example.dir/home/pi/pico/pico-sdk/src/rp2_common/pico_bit_ops/bit_ops_aeabi.S.obj
 .text          0x00000000        0x0 CMakeFiles/fm_example.dir/home/pi/pico/pico-sdk/src/rp2_common/pico_bootrom/bootrom.c.obj
 .data          0x00000000        0x0 CMakeFiles/fm_example.dir/home/pi/pico/pico-sdk/src/rp2_common/pico_bootrom/bootrom.c.obj
 .bss           0x00000000        0x0 CMakeFiles/fm_example.dir/home/pi/pico/pico-sdk/src/rp2_common/pico_bootrom/bootrom.c.obj
 .text          0x00000000        0x0 CMakeFiles/fm_example.dir/home/pi/pico/pico-sdk/src/rp2_common/pico_divider/divider.S.obj
 .data          0x00000000        0x0 CMakeFiles/fm_example.dir/home/pi/pico/pico-sdk/src/rp2_common/pico_divider/divider.S.obj
 .bss           0x00000000        0x0 CMakeFiles/fm_example.dir/home/pi/pico/pico-sdk/src/rp2_common/pico_divider/divider.S.obj
 .text.divmod_s64s64_rem
                0x00000000        0xc CMakeFiles/fm_example.dir/home/pi/pico/pico-sdk/src/rp2_common/pico_divider/divider.S.obj
 .text.divmod_u64u64_rem
                0x00000000        0xc CMakeFiles/fm_example.dir/home/pi/pico/pico-sdk/src/rp2_common/pico_divider/divider.S.obj
 .text          0x00000000        0x0 CMakeFiles/fm_example.dir/home/pi/pico/pico-sdk/src/rp2_common/pico_double/double_aeabi.S.obj
 .data          0x00000000        0x0 CMakeFiles/fm_example.dir/home/pi/pico/pico-sdk/src/rp2_common/pico_double/double_aeabi.S.obj
 .bss           0x00000000        0x0 CMakeFiles/fm_example.dir/home/pi/pico/pico-sdk/src/rp2_common/pico_double/double_aeabi.S.obj
 .text.push_r8_r11
                0x00000000        0xc CMakeFiles/fm_example.dir/home/pi/pico/pico-sdk/src/rp2_common/pico_double/double_aeabi.S.obj
 .text.pop_r8_r11
                0x00000000        0xc CMakeFiles/fm_example.dir/home/pi/pico/pico-sdk/src/rp2_common/pico_double/double_aeabi.S.obj
 .text.__wrap___aeabi_dcmpeq
                0x00000000       0x10 CMakeFiles/fm_example.dir/home/pi/pico/pico-sdk/src/rp2_common/pico_double/double_aeabi.S.obj
 .text.__wrap___aeabi_ui2d
                0x00000000       0x18 CMakeFiles/fm_example.dir/home/pi/pico/pico-sdk/src/rp2_common/pico_double/double_aeabi.S.obj
 .text.double2int
                0x00000000       0x18 CMakeFiles/fm_example.dir/home/pi/pico/pico-sdk/src/rp2_common/pico_double/double_aeabi.S.obj
 .text.fix2double
                0x00000000       0x18 CMakeFiles/fm_example.dir/home/pi/pico/pico-sdk/src/rp2_common/pico_double/double_aeabi.S.obj
 .text.ufix2double
                0x00000000       0x28 CMakeFiles/fm_example.dir/home/pi/pico/pico-sdk/src/rp2_common/pico_double/double_aeabi.S.obj
 .text.fix642double
                0x00000000       0x18 CMakeFiles/fm_example.dir/home/pi/pico/pico-sdk/src/rp2_common/pico_double/double_aeabi.S.obj
 .text.__wrap___aeabi_l2d
                0x00000000       0x18 CMakeFiles/fm_example.dir/home/pi/pico/pico-sdk/src/rp2_common/pico_double/double_aeabi.S.obj
 .text.__wrap___aeabi_ul2d
                0x00000000       0x18 CMakeFiles/fm_example.dir/home/pi/pico/pico-sdk/src/rp2_common/pico_double/double_aeabi.S.obj
 .text.__wrap___aeabi_d2lz
                0x00000000       0x26 CMakeFiles/fm_example.dir/home/pi/pico/pico-sdk/src/rp2_common/pico_double/double_aeabi.S.obj
 .text.double2int64
                0x00000000       0x18 CMakeFiles/fm_example.dir/home/pi/pico/pico-sdk/src/rp2_common/pico_double/double_aeabi.S.obj
 .text.__wrap___aeabi_d2ulz
                0x00000000       0x18 CMakeFiles/fm_example.dir/home/pi/pico/pico-sdk/src/rp2_common/pico_double/double_aeabi.S.obj
 .text.double2fix64
                0x00000000       0x18 CMakeFiles/fm_example.dir/home/pi/pico/pico-sdk/src/rp2_common/pico_double/double_aeabi.S.obj
 .text.double2ufix64
                0x00000000       0x18 CMakeFiles/fm_example.dir/home/pi/pico/pico-sdk/src/rp2_common/pico_double/double_aeabi.S.obj
 .text.double2fix
                0x00000000       0x18 CMakeFiles/fm_example.dir/home/pi/pico/pico-sdk/src/rp2_common/pico_double/double_aeabi.S.obj
 .text.double2ufix
                0x00000000       0x18 CMakeFiles/fm_example.dir/home/pi/pico/pico-sdk/src/rp2_common/pico_double/double_aeabi.S.obj
 .text.__wrap___aeabi_d2f
                0x00000000       0x18 CMakeFiles/fm_example.dir/home/pi/pico/pico-sdk/src/rp2_common/pico_double/double_aeabi.S.obj
 .text.__wrap_srqt
                0x00000000       0x18 CMakeFiles/fm_example.dir/home/pi/pico/pico-sdk/src/rp2_common/pico_double/double_aeabi.S.obj
 .text.__wrap_sincostan_remainder
                0x00000000       0x14 CMakeFiles/fm_example.dir/home/pi/pico/pico-sdk/src/rp2_common/pico_double/double_aeabi.S.obj
 .text.__wrap_cos
                0x00000000       0x2c CMakeFiles/fm_example.dir/home/pi/pico/pico-sdk/src/rp2_common/pico_double/double_aeabi.S.obj
 .text.__wrap_sin
                0x00000000       0x2c CMakeFiles/fm_example.dir/home/pi/pico/pico-sdk/src/rp2_common/pico_double/double_aeabi.S.obj
 .text.__wrap_sincos
                0x00000000       0xa0 CMakeFiles/fm_example.dir/home/pi/pico/pico-sdk/src/rp2_common/pico_double/double_aeabi.S.obj
 .text.__wrap_tan
                0x00000000       0x5c CMakeFiles/fm_example.dir/home/pi/pico/pico-sdk/src/rp2_common/pico_double/double_aeabi.S.obj
 .text.__wrap_atan2
                0x00000000       0x18 CMakeFiles/fm_example.dir/home/pi/pico/pico-sdk/src/rp2_common/pico_double/double_aeabi.S.obj
 .text.__wrap_exp
                0x00000000       0x18 CMakeFiles/fm_example.dir/home/pi/pico/pico-sdk/src/rp2_common/pico_double/double_aeabi.S.obj
 .text.__wrap_log
                0x00000000       0x18 CMakeFiles/fm_example.dir/home/pi/pico/pico-sdk/src/rp2_common/pico_double/double_aeabi.S.obj
 .text          0x00000000        0x0 CMakeFiles/fm_example.dir/home/pi/pico/pico-sdk/src/rp2_common/pico_double/double_init_rom.c.obj
 .data          0x00000000        0x0 CMakeFiles/fm_example.dir/home/pi/pico/pico-sdk/src/rp2_common/pico_double/double_init_rom.c.obj
 .bss           0x00000000        0x0 CMakeFiles/fm_example.dir/home/pi/pico/pico-sdk/src/rp2_common/pico_double/double_init_rom.c.obj
 .text          0x00000000        0x0 CMakeFiles/fm_example.dir/home/pi/pico/pico-sdk/src/rp2_common/pico_double/double_math.c.obj
 .data          0x00000000        0x0 CMakeFiles/fm_example.dir/home/pi/pico/pico-sdk/src/rp2_common/pico_double/double_math.c.obj
 .bss           0x00000000        0x0 CMakeFiles/fm_example.dir/home/pi/pico/pico-sdk/src/rp2_common/pico_double/double_math.c.obj
 .text.dpow_int2
                0x00000000       0x40 CMakeFiles/fm_example.dir/home/pi/pico/pico-sdk/src/rp2_common/pico_double/double_math.c.obj
 .text.drem_0   0x00000000      0x12e CMakeFiles/fm_example.dir/home/pi/pico/pico-sdk/src/rp2_common/pico_double/double_math.c.obj
 .text.dpow_1   0x00000000      0x26c CMakeFiles/fm_example.dir/home/pi/pico/pico-sdk/src/rp2_common/pico_double/double_math.c.obj
 .text.dpowint_0
                0x00000000      0x168 CMakeFiles/fm_example.dir/home/pi/pico/pico-sdk/src/rp2_common/pico_double/double_math.c.obj
 .text.dpow_0   0x00000000      0x170 CMakeFiles/fm_example.dir/home/pi/pico/pico-sdk/src/rp2_common/pico_double/double_math.c.obj
 .text.__wrap_ldexp
                0x00000000       0x4c CMakeFiles/fm_example.dir/home/pi/pico/pico-sdk/src/rp2_common/pico_double/double_math.c.obj
 .text.__wrap_copysign
                0x00000000       0x14 CMakeFiles/fm_example.dir/home/pi/pico/pico-sdk/src/rp2_common/pico_double/double_math.c.obj
 .text.__wrap_trunc
                0x00000000       0x54 CMakeFiles/fm_example.dir/home/pi/pico/pico-sdk/src/rp2_common/pico_double/double_math.c.obj
 .text.__wrap_round
                0x00000000       0x9c CMakeFiles/fm_example.dir/home/pi/pico/pico-sdk/src/rp2_common/pico_double/double_math.c.obj
 .text.__wrap_floor
                0x00000000       0xa8 CMakeFiles/fm_example.dir/home/pi/pico/pico-sdk/src/rp2_common/pico_double/double_math.c.obj
 .text.__wrap_ceil
                0x00000000       0xac CMakeFiles/fm_example.dir/home/pi/pico/pico-sdk/src/rp2_common/pico_double/double_math.c.obj
 .text.__wrap_asin
                0x00000000       0x58 CMakeFiles/fm_example.dir/home/pi/pico/pico-sdk/src/rp2_common/pico_double/double_math.c.obj
 .text.__wrap_acos
                0x00000000       0x54 CMakeFiles/fm_example.dir/home/pi/pico/pico-sdk/src/rp2_common/pico_double/double_math.c.obj
 .text.__wrap_atan
                0x00000000       0x40 CMakeFiles/fm_example.dir/home/pi/pico/pico-sdk/src/rp2_common/pico_double/double_math.c.obj
 .text.__wrap_sinh
                0x00000000       0x78 CMakeFiles/fm_example.dir/home/pi/pico/pico-sdk/src/rp2_common/pico_double/double_math.c.obj
 .text.__wrap_cosh
                0x00000000       0x78 CMakeFiles/fm_example.dir/home/pi/pico/pico-sdk/src/rp2_common/pico_double/double_math.c.obj
 .text.__wrap_tanh
                0x00000000       0xa0 CMakeFiles/fm_example.dir/home/pi/pico/pico-sdk/src/rp2_common/pico_double/double_math.c.obj
 .text.__wrap_asinh
                0x00000000       0xc0 CMakeFiles/fm_example.dir/home/pi/pico/pico-sdk/src/rp2_common/pico_double/double_math.c.obj
 .text.__wrap_acosh
                0x00000000       0x78 CMakeFiles/fm_example.dir/home/pi/pico/pico-sdk/src/rp2_common/pico_double/double_math.c.obj
 .text.__wrap_atanh
                0x00000000       0x80 CMakeFiles/fm_example.dir/home/pi/pico/pico-sdk/src/rp2_common/pico_double/double_math.c.obj
 .text.__wrap_exp2
                0x00000000       0xc8 CMakeFiles/fm_example.dir/home/pi/pico/pico-sdk/src/rp2_common/pico_double/double_math.c.obj
 .text.__wrap_log2
                0x00000000       0x18 CMakeFiles/fm_example.dir/home/pi/pico/pico-sdk/src/rp2_common/pico_double/double_math.c.obj
 .text.__wrap_exp10
                0x00000000       0x14 CMakeFiles/fm_example.dir/home/pi/pico/pico-sdk/src/rp2_common/pico_double/double_math.c.obj
 .text.__wrap_log10
                0x00000000       0x18 CMakeFiles/fm_example.dir/home/pi/pico/pico-sdk/src/rp2_common/pico_double/double_math.c.obj
 .text.__wrap_expm1
                0x00000000       0x14 CMakeFiles/fm_example.dir/home/pi/pico/pico-sdk/src/rp2_common/pico_double/double_math.c.obj
 .text.__wrap_log1p
                0x00000000       0x14 CMakeFiles/fm_example.dir/home/pi/pico/pico-sdk/src/rp2_common/pico_double/double_math.c.obj
 .text.__wrap_fma
                0x00000000       0x10 CMakeFiles/fm_example.dir/home/pi/pico/pico-sdk/src/rp2_common/pico_double/double_math.c.obj
 .text.__wrap_powint
                0x00000000       0xbc CMakeFiles/fm_example.dir/home/pi/pico/pico-sdk/src/rp2_common/pico_double/double_math.c.obj
 .text.__wrap_pow
                0x00000000      0x384 CMakeFiles/fm_example.dir/home/pi/pico/pico-sdk/src/rp2_common/pico_double/double_math.c.obj
 .text.__wrap_hypot
                0x00000000      0x270 CMakeFiles/fm_example.dir/home/pi/pico/pico-sdk/src/rp2_common/pico_double/double_math.c.obj
 .text.__wrap_cbrt
                0x00000000       0xe4 CMakeFiles/fm_example.dir/home/pi/pico/pico-sdk/src/rp2_common/pico_double/double_math.c.obj
 .text.__wrap_fmod
                0x00000000       0x90 CMakeFiles/fm_example.dir/home/pi/pico/pico-sdk/src/rp2_common/pico_double/double_math.c.obj
 .text.__wrap_remquo
                0x00000000      0x150 CMakeFiles/fm_example.dir/home/pi/pico/pico-sdk/src/rp2_common/pico_double/double_math.c.obj
 .text.__wrap_drem
                0x00000000       0x10 CMakeFiles/fm_example.dir/home/pi/pico/pico-sdk/src/rp2_common/pico_double/double_math.c.obj
 .text.__wrap_remainder
                0x00000000       0x10 CMakeFiles/fm_example.dir/home/pi/pico/pico-sdk/src/rp2_common/pico_double/double_math.c.obj
 .debug_info    0x00000000     0x2bf7 CMakeFiles/fm_example.dir/home/pi/pico/pico-sdk/src/rp2_common/pico_double/double_math.c.obj
 .debug_abbrev  0x00000000      0x3e9 CMakeFiles/fm_example.dir/home/pi/pico/pico-sdk/src/rp2_common/pico_double/double_math.c.obj
 .debug_loc     0x00000000     0x469b CMakeFiles/fm_example.dir/home/pi/pico/pico-sdk/src/rp2_common/pico_double/double_math.c.obj
 .debug_aranges
                0x00000000      0x130 CMakeFiles/fm_example.dir/home/pi/pico/pico-sdk/src/rp2_common/pico_double/double_math.c.obj
 .debug_ranges  0x00000000      0x378 CMakeFiles/fm_example.dir/home/pi/pico/pico-sdk/src/rp2_common/pico_double/double_math.c.obj
 .debug_line    0x00000000      0x8ac CMakeFiles/fm_example.dir/home/pi/pico/pico-sdk/src/rp2_common/pico_double/double_math.c.obj
 .debug_str     0x00000000      0x885 CMakeFiles/fm_example.dir/home/pi/pico/pico-sdk/src/rp2_common/pico_double/double_math.c.obj
 .comment       0x00000000       0x58 CMakeFiles/fm_example.dir/home/pi/pico/pico-sdk/src/rp2_common/pico_double/double_math.c.obj
 .debug_frame   0x00000000      0x434 CMakeFiles/fm_example.dir/home/pi/pico/pico-sdk/src/rp2_common/pico_double/double_math.c.obj
 .ARM.attributes
                0x00000000       0x32 CMakeFiles/fm_example.dir/home/pi/pico/pico-sdk/src/rp2_common/pico_double/double_math.c.obj
 .text          0x00000000        0x0 CMakeFiles/fm_example.dir/home/pi/pico/pico-sdk/src/rp2_common/pico_double/double_v1_rom_shim.S.obj
 .data          0x00000000        0x0 CMakeFiles/fm_example.dir/home/pi/pico/pico-sdk/src/rp2_common/pico_double/double_v1_rom_shim.S.obj
 .bss           0x00000000        0x0 CMakeFiles/fm_example.dir/home/pi/pico/pico-sdk/src/rp2_common/pico_double/double_v1_rom_shim.S.obj
 .text.dsqrt_shim
                0x00000000      0x1a8 CMakeFiles/fm_example.dir/home/pi/pico/pico-sdk/src/rp2_common/pico_double/double_v1_rom_shim.S.obj
 .text.dcordic_vec_step
                0x00000000        0xe CMakeFiles/fm_example.dir/home/pi/pico/pico-sdk/src/rp2_common/pico_double/double_v1_rom_shim.S.obj
 .text.double2int_shim
                0x00000000        0xe CMakeFiles/fm_example.dir/home/pi/pico/pico-sdk/src/rp2_common/pico_double/double_v1_rom_shim.S.obj
 .text.double2int64_shim
                0x00000000       0x1a CMakeFiles/fm_example.dir/home/pi/pico/pico-sdk/src/rp2_common/pico_double/double_v1_rom_shim.S.obj
 .text.double2float_shim
                0x00000000       0x5c CMakeFiles/fm_example.dir/home/pi/pico/pico-sdk/src/rp2_common/pico_double/double_v1_rom_shim.S.obj
 .text.x2double_shims
                0x00000000       0x90 CMakeFiles/fm_example.dir/home/pi/pico/pico-sdk/src/rp2_common/pico_double/double_v1_rom_shim.S.obj
 .text.dreduce  0x00000000       0x82 CMakeFiles/fm_example.dir/home/pi/pico/pico-sdk/src/rp2_common/pico_double/double_v1_rom_shim.S.obj
 .text.dtan_shim
                0x00000000       0x20 CMakeFiles/fm_example.dir/home/pi/pico/pico-sdk/src/rp2_common/pico_double/double_v1_rom_shim.S.obj
 .text.dcos_shim
                0x00000000       0x10 CMakeFiles/fm_example.dir/home/pi/pico/pico-sdk/src/rp2_common/pico_double/double_v1_rom_shim.S.obj
 .text.dsin_shim
                0x00000000       0x14 CMakeFiles/fm_example.dir/home/pi/pico/pico-sdk/src/rp2_common/pico_double/double_v1_rom_shim.S.obj
 .text.dsincos_shim
                0x00000000       0x20 CMakeFiles/fm_example.dir/home/pi/pico/pico-sdk/src/rp2_common/pico_double/double_v1_rom_shim.S.obj
 .text.dtrig_guts
                0x00000000      0x2ec CMakeFiles/fm_example.dir/home/pi/pico/pico-sdk/src/rp2_common/pico_double/double_v1_rom_shim.S.obj
 .text.dexp_guts
                0x00000000      0x268 CMakeFiles/fm_example.dir/home/pi/pico/pico-sdk/src/rp2_common/pico_double/double_v1_rom_shim.S.obj
 .text          0x00000000        0x0 CMakeFiles/fm_example.dir/home/pi/pico/pico-sdk/src/rp2_common/pico_int64_ops/pico_int64_ops_aeabi.S.obj
 .data          0x00000000        0x0 CMakeFiles/fm_example.dir/home/pi/pico/pico-sdk/src/rp2_common/pico_int64_ops/pico_int64_ops_aeabi.S.obj
 .bss           0x00000000        0x0 CMakeFiles/fm_example.dir/home/pi/pico/pico-sdk/src/rp2_common/pico_int64_ops/pico_int64_ops_aeabi.S.obj
 .text          0x00000000        0x0 CMakeFiles/fm_example.dir/home/pi/pico/pico-sdk/src/rp2_common/pico_float/float_aeabi.S.obj
 .data          0x00000000        0x0 CMakeFiles/fm_example.dir/home/pi/pico/pico-sdk/src/rp2_common/pico_float/float_aeabi.S.obj
 .bss           0x00000000        0x0 CMakeFiles/fm_example.dir/home/pi/pico/pico-sdk/src/rp2_common/pico_float/float_aeabi.S.obj
 .text.__wrap___aeabi_fcmple
                0x00000000       0x10 CMakeFiles/fm_example.dir/home/pi/pico/pico-sdk/src/rp2_common/pico_float/float_aeabi.S.obj
 .text.__wrap___aeabi_fcmpge
                0x00000000       0x10 CMakeFiles/fm_example.dir/home/pi/pico/pico-sdk/src/rp2_common/pico_float/float_aeabi.S.obj
 .text.__wrap___aeabi_fcmpun
                0x00000000       0x18 CMakeFiles/fm_example.dir/home/pi/pico/pico-sdk/src/rp2_common/pico_float/float_aeabi.S.obj
 .text.__wrap___aeabi_ui2f
                0x00000000        0xa CMakeFiles/fm_example.dir/home/pi/pico/pico-sdk/src/rp2_common/pico_float/float_aeabi.S.obj
 .text.__wrap___aeabi_f2iz
                0x00000000       0x4e CMakeFiles/fm_example.dir/home/pi/pico/pico-sdk/src/rp2_common/pico_float/float_aeabi.S.obj
 .text.float2int
                0x00000000       0x14 CMakeFiles/fm_example.dir/home/pi/pico/pico-sdk/src/rp2_common/pico_float/float_aeabi.S.obj
 .text.float2fix
                0x00000000       0x14 CMakeFiles/fm_example.dir/home/pi/pico/pico-sdk/src/rp2_common/pico_float/float_aeabi.S.obj
 .text.float2ufix
                0x00000000       0x10 CMakeFiles/fm_example.dir/home/pi/pico/pico-sdk/src/rp2_common/pico_float/float_aeabi.S.obj
 .text.fix2float
                0x00000000       0x10 CMakeFiles/fm_example.dir/home/pi/pico/pico-sdk/src/rp2_common/pico_float/float_aeabi.S.obj
 .text.ufix2float
                0x00000000       0x10 CMakeFiles/fm_example.dir/home/pi/pico/pico-sdk/src/rp2_common/pico_float/float_aeabi.S.obj
 .text.fix642float
                0x00000000       0x14 CMakeFiles/fm_example.dir/home/pi/pico/pico-sdk/src/rp2_common/pico_float/float_aeabi.S.obj
 .text.ufix642float
                0x00000000       0x14 CMakeFiles/fm_example.dir/home/pi/pico/pico-sdk/src/rp2_common/pico_float/float_aeabi.S.obj
 .text.__wrap___aeabi_l2f
                0x00000000       0x20 CMakeFiles/fm_example.dir/home/pi/pico/pico-sdk/src/rp2_common/pico_float/float_aeabi.S.obj
 .text.__wrap___aeabi_ul2f
                0x00000000       0x20 CMakeFiles/fm_example.dir/home/pi/pico/pico-sdk/src/rp2_common/pico_float/float_aeabi.S.obj
 .text.__wrap___aeabi_f2lz
                0x00000000       0x26 CMakeFiles/fm_example.dir/home/pi/pico/pico-sdk/src/rp2_common/pico_float/float_aeabi.S.obj
 .text.float2int64
                0x00000000       0x14 CMakeFiles/fm_example.dir/home/pi/pico/pico-sdk/src/rp2_common/pico_float/float_aeabi.S.obj
 .text.float2fix64
                0x00000000       0x14 CMakeFiles/fm_example.dir/home/pi/pico/pico-sdk/src/rp2_common/pico_float/float_aeabi.S.obj
 .text.__wrap___aeabi_f2ulz
                0x00000000       0x14 CMakeFiles/fm_example.dir/home/pi/pico/pico-sdk/src/rp2_common/pico_float/float_aeabi.S.obj
 .text.float2ufix64
                0x00000000       0x14 CMakeFiles/fm_example.dir/home/pi/pico/pico-sdk/src/rp2_common/pico_float/float_aeabi.S.obj
 .text.__wrap_srqtf
                0x00000000       0x24 CMakeFiles/fm_example.dir/home/pi/pico/pico-sdk/src/rp2_common/pico_float/float_aeabi.S.obj
 .text.__wrap_cosf
                0x00000000       0x28 CMakeFiles/fm_example.dir/home/pi/pico/pico-sdk/src/rp2_common/pico_float/float_aeabi.S.obj
 .text.__wrap_sinf
                0x00000000       0x28 CMakeFiles/fm_example.dir/home/pi/pico/pico-sdk/src/rp2_common/pico_float/float_aeabi.S.obj
 .text.__wrap_sincosf
                0x00000000       0x30 CMakeFiles/fm_example.dir/home/pi/pico/pico-sdk/src/rp2_common/pico_float/float_aeabi.S.obj
 .text.__wrap_tanf
                0x00000000       0x50 CMakeFiles/fm_example.dir/home/pi/pico/pico-sdk/src/rp2_common/pico_float/float_aeabi.S.obj
 .text.__wrap_atan2f
                0x00000000       0x14 CMakeFiles/fm_example.dir/home/pi/pico/pico-sdk/src/rp2_common/pico_float/float_aeabi.S.obj
 .text.__wrap_expf
                0x00000000       0x10 CMakeFiles/fm_example.dir/home/pi/pico/pico-sdk/src/rp2_common/pico_float/float_aeabi.S.obj
 .text.__wrap_logf
                0x00000000       0x10 CMakeFiles/fm_example.dir/home/pi/pico/pico-sdk/src/rp2_common/pico_float/float_aeabi.S.obj
 .text          0x00000000        0x0 CMakeFiles/fm_example.dir/home/pi/pico/pico-sdk/src/rp2_common/pico_float/float_init_rom.c.obj
 .data          0x00000000        0x0 CMakeFiles/fm_example.dir/home/pi/pico/pico-sdk/src/rp2_common/pico_float/float_init_rom.c.obj
 .bss           0x00000000        0x0 CMakeFiles/fm_example.dir/home/pi/pico/pico-sdk/src/rp2_common/pico_float/float_init_rom.c.obj
 .text          0x00000000        0x0 CMakeFiles/fm_example.dir/home/pi/pico/pico-sdk/src/rp2_common/pico_float/float_math.c.obj
 .data          0x00000000        0x0 CMakeFiles/fm_example.dir/home/pi/pico/pico-sdk/src/rp2_common/pico_float/float_math.c.obj
 .bss           0x00000000        0x0 CMakeFiles/fm_example.dir/home/pi/pico/pico-sdk/src/rp2_common/pico_float/float_math.c.obj
 .text.fpow_int2
                0x00000000       0x32 CMakeFiles/fm_example.dir/home/pi/pico/pico-sdk/src/rp2_common/pico_float/float_math.c.obj
 .text.frem_0   0x00000000       0x82 CMakeFiles/fm_example.dir/home/pi/pico/pico-sdk/src/rp2_common/pico_float/float_math.c.obj
 .text.fpow_0   0x00000000      0x104 CMakeFiles/fm_example.dir/home/pi/pico/pico-sdk/src/rp2_common/pico_float/float_math.c.obj
 .text.fpowint_0
                0x00000000      0x104 CMakeFiles/fm_example.dir/home/pi/pico/pico-sdk/src/rp2_common/pico_float/float_math.c.obj
 .text.__wrap_ldexpf
                0x00000000       0x32 CMakeFiles/fm_example.dir/home/pi/pico/pico-sdk/src/rp2_common/pico_float/float_math.c.obj
 .text.__wrap_copysignf
                0x00000000        0xc CMakeFiles/fm_example.dir/home/pi/pico/pico-sdk/src/rp2_common/pico_float/float_math.c.obj
 .text.__wrap_truncf
                0x00000000       0x22 CMakeFiles/fm_example.dir/home/pi/pico/pico-sdk/src/rp2_common/pico_float/float_math.c.obj
 .text.__wrap_floorf
                0x00000000       0x40 CMakeFiles/fm_example.dir/home/pi/pico/pico-sdk/src/rp2_common/pico_float/float_math.c.obj
 .text.__wrap_ceilf
                0x00000000       0x40 CMakeFiles/fm_example.dir/home/pi/pico/pico-sdk/src/rp2_common/pico_float/float_math.c.obj
 .text.__wrap_asinf
                0x00000000       0x42 CMakeFiles/fm_example.dir/home/pi/pico/pico-sdk/src/rp2_common/pico_float/float_math.c.obj
 .text.__wrap_acosf
                0x00000000       0x40 CMakeFiles/fm_example.dir/home/pi/pico/pico-sdk/src/rp2_common/pico_float/float_math.c.obj
 .text.__wrap_atanf
                0x00000000       0x2c CMakeFiles/fm_example.dir/home/pi/pico/pico-sdk/src/rp2_common/pico_float/float_math.c.obj
 .text.__wrap_sinhf
                0x00000000       0x50 CMakeFiles/fm_example.dir/home/pi/pico/pico-sdk/src/rp2_common/pico_float/float_math.c.obj
 .text.__wrap_coshf
                0x00000000       0x50 CMakeFiles/fm_example.dir/home/pi/pico/pico-sdk/src/rp2_common/pico_float/float_math.c.obj
 .text.__wrap_tanhf
                0x00000000       0x6c CMakeFiles/fm_example.dir/home/pi/pico/pico-sdk/src/rp2_common/pico_float/float_math.c.obj
 .text.__wrap_asinhf
                0x00000000       0xb8 CMakeFiles/fm_example.dir/home/pi/pico/pico-sdk/src/rp2_common/pico_float/float_math.c.obj
 .text.__wrap_acoshf
                0x00000000       0x74 CMakeFiles/fm_example.dir/home/pi/pico/pico-sdk/src/rp2_common/pico_float/float_math.c.obj
 .text.__wrap_atanhf
                0x00000000       0x58 CMakeFiles/fm_example.dir/home/pi/pico/pico-sdk/src/rp2_common/pico_float/float_math.c.obj
 .text.__wrap_exp2f
                0x00000000       0x20 CMakeFiles/fm_example.dir/home/pi/pico/pico-sdk/src/rp2_common/pico_float/float_math.c.obj
 .text.__wrap_log2f
                0x00000000       0x14 CMakeFiles/fm_example.dir/home/pi/pico/pico-sdk/src/rp2_common/pico_float/float_math.c.obj
 .text.__wrap_exp10f
                0x00000000       0x20 CMakeFiles/fm_example.dir/home/pi/pico/pico-sdk/src/rp2_common/pico_float/float_math.c.obj
 .text.__wrap_log10f
                0x00000000       0x14 CMakeFiles/fm_example.dir/home/pi/pico/pico-sdk/src/rp2_common/pico_float/float_math.c.obj
 .text.__wrap_expm1f
                0x00000000       0x1c CMakeFiles/fm_example.dir/home/pi/pico/pico-sdk/src/rp2_common/pico_float/float_math.c.obj
 .text.__wrap_log1pf
                0x00000000       0x1c CMakeFiles/fm_example.dir/home/pi/pico/pico-sdk/src/rp2_common/pico_float/float_math.c.obj
 .text.__wrap_fmaf
                0x00000000       0x3c CMakeFiles/fm_example.dir/home/pi/pico/pico-sdk/src/rp2_common/pico_float/float_math.c.obj
 .text.__wrap_powintf
                0x00000000       0xa0 CMakeFiles/fm_example.dir/home/pi/pico/pico-sdk/src/rp2_common/pico_float/float_math.c.obj
 .text.__wrap_powf
                0x00000000      0x1f4 CMakeFiles/fm_example.dir/home/pi/pico/pico-sdk/src/rp2_common/pico_float/float_math.c.obj
 .text.__wrap_hypotf
                0x00000000      0x180 CMakeFiles/fm_example.dir/home/pi/pico/pico-sdk/src/rp2_common/pico_float/float_math.c.obj
 .text.__wrap_cbrtf
                0x00000000       0xb0 CMakeFiles/fm_example.dir/home/pi/pico/pico-sdk/src/rp2_common/pico_float/float_math.c.obj
 .text.__wrap_fmodf
                0x00000000       0x62 CMakeFiles/fm_example.dir/home/pi/pico/pico-sdk/src/rp2_common/pico_float/float_math.c.obj
 .text.__wrap_remquof
                0x00000000       0xdc CMakeFiles/fm_example.dir/home/pi/pico/pico-sdk/src/rp2_common/pico_float/float_math.c.obj
 .text.__wrap_dremf
                0x00000000        0xa CMakeFiles/fm_example.dir/home/pi/pico/pico-sdk/src/rp2_common/pico_float/float_math.c.obj
 .text.__wrap_remainderf
                0x00000000        0xa CMakeFiles/fm_example.dir/home/pi/pico/pico-sdk/src/rp2_common/pico_float/float_math.c.obj
 .text          0x00000000        0x0 CMakeFiles/fm_example.dir/home/pi/pico/pico-sdk/src/rp2_common/pico_float/float_v1_rom_shim.S.obj
 .data          0x00000000        0x0 CMakeFiles/fm_example.dir/home/pi/pico/pico-sdk/src/rp2_common/pico_float/float_v1_rom_shim.S.obj
 .bss           0x00000000        0x0 CMakeFiles/fm_example.dir/home/pi/pico/pico-sdk/src/rp2_common/pico_float/float_v1_rom_shim.S.obj
 .text.642float_shims
                0x00000000       0x44 CMakeFiles/fm_example.dir/home/pi/pico/pico-sdk/src/rp2_common/pico_float/float_v1_rom_shim.S.obj
 .text.fatan2_shim
                0x00000000       0x88 CMakeFiles/fm_example.dir/home/pi/pico/pico-sdk/src/rp2_common/pico_float/float_v1_rom_shim.S.obj
 .text.float232_shims
                0x00000000       0x18 CMakeFiles/fm_example.dir/home/pi/pico/pico-sdk/src/rp2_common/pico_float/float_v1_rom_shim.S.obj
 .text.float264_shims
                0x00000000       0x4c CMakeFiles/fm_example.dir/home/pi/pico/pico-sdk/src/rp2_common/pico_float/float_v1_rom_shim.S.obj
 .text.d2fix_a_float
                0x00000000       0x5c CMakeFiles/fm_example.dir/home/pi/pico/pico-sdk/src/rp2_common/pico_float/float_v1_rom_shim.S.obj
 .text          0x00000000        0x0 CMakeFiles/fm_example.dir/home/pi/pico/pico-sdk/src/rp2_common/pico_malloc/pico_malloc.c.obj
 .data          0x00000000        0x0 CMakeFiles/fm_example.dir/home/pi/pico/pico-sdk/src/rp2_common/pico_malloc/pico_malloc.c.obj
 .bss           0x00000000        0x0 CMakeFiles/fm_example.dir/home/pi/pico/pico-sdk/src/rp2_common/pico_malloc/pico_malloc.c.obj
 .text.__wrap_malloc
                0x00000000       0x24 CMakeFiles/fm_example.dir/home/pi/pico/pico-sdk/src/rp2_common/pico_malloc/pico_malloc.c.obj
 .text.__wrap_calloc
                0x00000000       0x24 CMakeFiles/fm_example.dir/home/pi/pico/pico-sdk/src/rp2_common/pico_malloc/pico_malloc.c.obj
 .text.__wrap_free
                0x00000000        0x8 CMakeFiles/fm_example.dir/home/pi/pico/pico-sdk/src/rp2_common/pico_malloc/pico_malloc.c.obj
 .rodata.__wrap_malloc.str1.4
                0x00000000        0xe CMakeFiles/fm_example.dir/home/pi/pico/pico-sdk/src/rp2_common/pico_malloc/pico_malloc.c.obj
 .debug_info    0x00000000      0xa51 CMakeFiles/fm_example.dir/home/pi/pico/pico-sdk/src/rp2_common/pico_malloc/pico_malloc.c.obj
 .debug_abbrev  0x00000000      0x25f CMakeFiles/fm_example.dir/home/pi/pico/pico-sdk/src/rp2_common/pico_malloc/pico_malloc.c.obj
 .debug_loc     0x00000000      0x102 CMakeFiles/fm_example.dir/home/pi/pico/pico-sdk/src/rp2_common/pico_malloc/pico_malloc.c.obj
 .debug_aranges
                0x00000000       0x30 CMakeFiles/fm_example.dir/home/pi/pico/pico-sdk/src/rp2_common/pico_malloc/pico_malloc.c.obj
 .debug_ranges  0x00000000       0x50 CMakeFiles/fm_example.dir/home/pi/pico/pico-sdk/src/rp2_common/pico_malloc/pico_malloc.c.obj
 .debug_line    0x00000000      0x18c CMakeFiles/fm_example.dir/home/pi/pico/pico-sdk/src/rp2_common/pico_malloc/pico_malloc.c.obj
 .debug_str     0x00000000      0x600 CMakeFiles/fm_example.dir/home/pi/pico/pico-sdk/src/rp2_common/pico_malloc/pico_malloc.c.obj
 .comment       0x00000000       0x58 CMakeFiles/fm_example.dir/home/pi/pico/pico-sdk/src/rp2_common/pico_malloc/pico_malloc.c.obj
 .debug_frame   0x00000000       0x58 CMakeFiles/fm_example.dir/home/pi/pico/pico-sdk/src/rp2_common/pico_malloc/pico_malloc.c.obj
 .ARM.attributes
                0x00000000       0x32 CMakeFiles/fm_example.dir/home/pi/pico/pico-sdk/src/rp2_common/pico_malloc/pico_malloc.c.obj
 .data          0x00000000        0x0 CMakeFiles/fm_example.dir/home/pi/pico/pico-sdk/src/rp2_common/pico_mem_ops/mem_ops_aeabi.S.obj
 .bss           0x00000000        0x0 CMakeFiles/fm_example.dir/home/pi/pico/pico-sdk/src/rp2_common/pico_mem_ops/mem_ops_aeabi.S.obj
 .text.aeabi_memset_memcpy
                0x00000000       0x24 CMakeFiles/fm_example.dir/home/pi/pico/pico-sdk/src/rp2_common/pico_mem_ops/mem_ops_aeabi.S.obj
 .text          0x00000000        0x0 CMakeFiles/fm_example.dir/home/pi/pico/pico-sdk/src/rp2_common/pico_standard_link/crt0.S.obj
 .data          0x00000000        0x0 CMakeFiles/fm_example.dir/home/pi/pico/pico-sdk/src/rp2_common/pico_standard_link/crt0.S.obj
 .bss           0x00000000        0x0 CMakeFiles/fm_example.dir/home/pi/pico/pico-sdk/src/rp2_common/pico_standard_link/crt0.S.obj
 .text          0x00000000        0x0 CMakeFiles/fm_example.dir/home/pi/pico/pico-sdk/src/rp2_common/pico_standard_link/new_delete.cpp.obj
 .data          0x00000000        0x0 CMakeFiles/fm_example.dir/home/pi/pico/pico-sdk/src/rp2_common/pico_standard_link/new_delete.cpp.obj
 .bss           0x00000000        0x0 CMakeFiles/fm_example.dir/home/pi/pico/pico-sdk/src/rp2_common/pico_standard_link/new_delete.cpp.obj
 .text._Znwj    0x00000000        0x8 CMakeFiles/fm_example.dir/home/pi/pico/pico-sdk/src/rp2_common/pico_standard_link/new_delete.cpp.obj
 .text._Znaj    0x00000000        0x8 CMakeFiles/fm_example.dir/home/pi/pico/pico-sdk/src/rp2_common/pico_standard_link/new_delete.cpp.obj
 .text._ZdlPv   0x00000000        0x8 CMakeFiles/fm_example.dir/home/pi/pico/pico-sdk/src/rp2_common/pico_standard_link/new_delete.cpp.obj
 .text._ZdaPv   0x00000000        0x8 CMakeFiles/fm_example.dir/home/pi/pico/pico-sdk/src/rp2_common/pico_standard_link/new_delete.cpp.obj
 .text._ZdlPvj  0x00000000        0x8 CMakeFiles/fm_example.dir/home/pi/pico/pico-sdk/src/rp2_common/pico_standard_link/new_delete.cpp.obj
 .text._ZdaPvj  0x00000000        0x8 CMakeFiles/fm_example.dir/home/pi/pico/pico-sdk/src/rp2_common/pico_standard_link/new_delete.cpp.obj
 .debug_info    0x00000000      0xf1d CMakeFiles/fm_example.dir/home/pi/pico/pico-sdk/src/rp2_common/pico_standard_link/new_delete.cpp.obj
 .debug_abbrev  0x00000000      0x2c3 CMakeFiles/fm_example.dir/home/pi/pico/pico-sdk/src/rp2_common/pico_standard_link/new_delete.cpp.obj
 .debug_loc     0x00000000      0x108 CMakeFiles/fm_example.dir/home/pi/pico/pico-sdk/src/rp2_common/pico_standard_link/new_delete.cpp.obj
 .debug_aranges
                0x00000000       0x48 CMakeFiles/fm_example.dir/home/pi/pico/pico-sdk/src/rp2_common/pico_standard_link/new_delete.cpp.obj
 .debug_ranges  0x00000000       0x38 CMakeFiles/fm_example.dir/home/pi/pico/pico-sdk/src/rp2_common/pico_standard_link/new_delete.cpp.obj
 .debug_line    0x00000000      0x1da CMakeFiles/fm_example.dir/home/pi/pico/pico-sdk/src/rp2_common/pico_standard_link/new_delete.cpp.obj
 .debug_str     0x00000000      0x789 CMakeFiles/fm_example.dir/home/pi/pico/pico-sdk/src/rp2_common/pico_standard_link/new_delete.cpp.obj
 .comment       0x00000000       0x58 CMakeFiles/fm_example.dir/home/pi/pico/pico-sdk/src/rp2_common/pico_standard_link/new_delete.cpp.obj
 .debug_frame   0x00000000       0xa0 CMakeFiles/fm_example.dir/home/pi/pico/pico-sdk/src/rp2_common/pico_standard_link/new_delete.cpp.obj
 .ARM.attributes
                0x00000000       0x32 CMakeFiles/fm_example.dir/home/pi/pico/pico-sdk/src/rp2_common/pico_standard_link/new_delete.cpp.obj
 .text          0x00000000        0x0 CMakeFiles/fm_example.dir/home/pi/pico/pico-sdk/src/rp2_common/pico_standard_link/binary_info.c.obj
 .data          0x00000000        0x0 CMakeFiles/fm_example.dir/home/pi/pico/pico-sdk/src/rp2_common/pico_standard_link/binary_info.c.obj
 .bss           0x00000000        0x0 CMakeFiles/fm_example.dir/home/pi/pico/pico-sdk/src/rp2_common/pico_standard_link/binary_info.c.obj
 .text          0x00000000        0x0 CMakeFiles/fm_example.dir/home/pi/pico/pico-sdk/src/rp2_common/pico_stdio/stdio.c.obj
 .data          0x00000000        0x0 CMakeFiles/fm_example.dir/home/pi/pico/pico-sdk/src/rp2_common/pico_stdio/stdio.c.obj
 .bss           0x00000000        0x0 CMakeFiles/fm_example.dir/home/pi/pico/pico-sdk/src/rp2_common/pico_stdio/stdio.c.obj
 .text.__wrap_putchar
                0x00000000       0x1a CMakeFiles/fm_example.dir/home/pi/pico/pico-sdk/src/rp2_common/pico_stdio/stdio.c.obj
 .text._read    0x00000000       0x24 CMakeFiles/fm_example.dir/home/pi/pico/pico-sdk/src/rp2_common/pico_stdio/stdio.c.obj
 .text._write   0x00000000       0x1e CMakeFiles/fm_example.dir/home/pi/pico/pico-sdk/src/rp2_common/pico_stdio/stdio.c.obj
 .text.__wrap_getchar
                0x00000000       0x40 CMakeFiles/fm_example.dir/home/pi/pico/pico-sdk/src/rp2_common/pico_stdio/stdio.c.obj
 .text.stdio_filter_driver
                0x00000000        0xc CMakeFiles/fm_example.dir/home/pi/pico/pico-sdk/src/rp2_common/pico_stdio/stdio.c.obj
 .text.stdio_set_translate_crlf
                0x00000000       0x10 CMakeFiles/fm_example.dir/home/pi/pico/pico-sdk/src/rp2_common/pico_stdio/stdio.c.obj
 .rodata.__func__.6060
                0x00000000        0xf CMakeFiles/fm_example.dir/home/pi/pico/pico-sdk/src/rp2_common/pico_stdio/stdio.c.obj
 .text          0x00000000        0x0 CMakeFiles/fm_example.dir/home/pi/pico/pico-sdk/src/rp2_common/pico_stdio_uart/stdio_uart.c.obj
 .data          0x00000000        0x0 CMakeFiles/fm_example.dir/home/pi/pico/pico-sdk/src/rp2_common/pico_stdio_uart/stdio_uart.c.obj
 .bss           0x00000000        0x0 CMakeFiles/fm_example.dir/home/pi/pico/pico-sdk/src/rp2_common/pico_stdio_uart/stdio_uart.c.obj
 .text.stdout_uart_init
                0x00000000       0x28 CMakeFiles/fm_example.dir/home/pi/pico/pico-sdk/src/rp2_common/pico_stdio_uart/stdio_uart.c.obj
 .text.stdin_uart_init
                0x00000000       0x28 CMakeFiles/fm_example.dir/home/pi/pico/pico-sdk/src/rp2_common/pico_stdio_uart/stdio_uart.c.obj
 .binary_info.__bi_ptr49
                0x00000000        0x4 CMakeFiles/fm_example.dir/home/pi/pico/pico-sdk/src/rp2_common/pico_stdio_uart/stdio_uart.c.obj
 .binary_info.__bi_ptr53
                0x00000000        0x4 CMakeFiles/fm_example.dir/home/pi/pico/pico-sdk/src/rp2_common/pico_stdio_uart/stdio_uart.c.obj
 .binary_info.__bi_ptr61
                0x00000000        0x4 CMakeFiles/fm_example.dir/home/pi/pico/pico-sdk/src/rp2_common/pico_stdio_uart/stdio_uart.c.obj
 .binary_info.__bi_ptr65
                0x00000000        0x4 CMakeFiles/fm_example.dir/home/pi/pico/pico-sdk/src/rp2_common/pico_stdio_uart/stdio_uart.c.obj
 .rodata.__bi_49.4709
                0x00000000        0x8 CMakeFiles/fm_example.dir/home/pi/pico/pico-sdk/src/rp2_common/pico_stdio_uart/stdio_uart.c.obj
 .rodata.__bi_53.4713
                0x00000000        0xc CMakeFiles/fm_example.dir/home/pi/pico/pico-sdk/src/rp2_common/pico_stdio_uart/stdio_uart.c.obj
 .rodata.__bi_61.4719
                0x00000000        0x8 CMakeFiles/fm_example.dir/home/pi/pico/pico-sdk/src/rp2_common/pico_stdio_uart/stdio_uart.c.obj
 .rodata.__bi_65.4723
                0x00000000        0xc CMakeFiles/fm_example.dir/home/pi/pico/pico-sdk/src/rp2_common/pico_stdio_uart/stdio_uart.c.obj
 .text          0x00000000        0x0 CMakeFiles/fm_example.dir/home/pi/pico/pico-sdk/src/rp2_common/pico_stdio_usb/reset_interface.c.obj
 .data          0x00000000        0x0 CMakeFiles/fm_example.dir/home/pi/pico/pico-sdk/src/rp2_common/pico_stdio_usb/reset_interface.c.obj
 .bss           0x00000000        0x0 CMakeFiles/fm_example.dir/home/pi/pico/pico-sdk/src/rp2_common/pico_stdio_usb/reset_interface.c.obj
 .text          0x00000000        0x0 CMakeFiles/fm_example.dir/home/pi/pico/pico-sdk/src/rp2_common/pico_stdio_usb/stdio_usb.c.obj
 .data          0x00000000        0x0 CMakeFiles/fm_example.dir/home/pi/pico/pico-sdk/src/rp2_common/pico_stdio_usb/stdio_usb.c.obj
 .bss           0x00000000        0x0 CMakeFiles/fm_example.dir/home/pi/pico/pico-sdk/src/rp2_common/pico_stdio_usb/stdio_usb.c.obj
 .text          0x00000000        0x0 CMakeFiles/fm_example.dir/home/pi/pico/pico-sdk/src/rp2_common/pico_stdio_usb/stdio_usb_descriptors.c.obj
 .data          0x00000000        0x0 CMakeFiles/fm_example.dir/home/pi/pico/pico-sdk/src/rp2_common/pico_stdio_usb/stdio_usb_descriptors.c.obj
 .bss           0x00000000        0x0 CMakeFiles/fm_example.dir/home/pi/pico/pico-sdk/src/rp2_common/pico_stdio_usb/stdio_usb_descriptors.c.obj
 .text          0x00000000        0x0 CMakeFiles/fm_example.dir/home/pi/pico/pico-sdk/lib/tinyusb/src/portable/raspberrypi/rp2040/dcd_rp2040.c.obj
 .data          0x00000000        0x0 CMakeFiles/fm_example.dir/home/pi/pico/pico-sdk/lib/tinyusb/src/portable/raspberrypi/rp2040/dcd_rp2040.c.obj
 .bss           0x00000000        0x0 CMakeFiles/fm_example.dir/home/pi/pico/pico-sdk/lib/tinyusb/src/portable/raspberrypi/rp2040/dcd_rp2040.c.obj
 .text.dcd_int_disable
                0x00000000       0x2c CMakeFiles/fm_example.dir/home/pi/pico/pico-sdk/lib/tinyusb/src/portable/raspberrypi/rp2040/dcd_rp2040.c.obj
 .text.dcd_remote_wakeup
                0x00000000       0x30 CMakeFiles/fm_example.dir/home/pi/pico/pico-sdk/lib/tinyusb/src/portable/raspberrypi/rp2040/dcd_rp2040.c.obj
 .text.dcd_disconnect
                0x00000000       0x30 CMakeFiles/fm_example.dir/home/pi/pico/pico-sdk/lib/tinyusb/src/portable/raspberrypi/rp2040/dcd_rp2040.c.obj
 .text.dcd_edpt_close
                0x00000000        0x2 CMakeFiles/fm_example.dir/home/pi/pico/pico-sdk/lib/tinyusb/src/portable/raspberrypi/rp2040/dcd_rp2040.c.obj
 .text.dcd_int_handler
                0x00000000        0x8 CMakeFiles/fm_example.dir/home/pi/pico/pico-sdk/lib/tinyusb/src/portable/raspberrypi/rp2040/dcd_rp2040.c.obj
 .rodata.__func__.6887
                0x00000000       0x10 CMakeFiles/fm_example.dir/home/pi/pico/pico-sdk/lib/tinyusb/src/portable/raspberrypi/rp2040/dcd_rp2040.c.obj
 .rodata.__func__.6896
                0x00000000       0x12 CMakeFiles/fm_example.dir/home/pi/pico/pico-sdk/lib/tinyusb/src/portable/raspberrypi/rp2040/dcd_rp2040.c.obj
 .rodata.__func__.6900
                0x00000000        0xf CMakeFiles/fm_example.dir/home/pi/pico/pico-sdk/lib/tinyusb/src/portable/raspberrypi/rp2040/dcd_rp2040.c.obj
 .text          0x00000000        0x0 CMakeFiles/fm_example.dir/home/pi/pico/pico-sdk/lib/tinyusb/src/portable/raspberrypi/rp2040/rp2040_usb.c.obj
 .data          0x00000000        0x0 CMakeFiles/fm_example.dir/home/pi/pico/pico-sdk/lib/tinyusb/src/portable/raspberrypi/rp2040/rp2040_usb.c.obj
 .bss           0x00000000        0x0 CMakeFiles/fm_example.dir/home/pi/pico/pico-sdk/lib/tinyusb/src/portable/raspberrypi/rp2040/rp2040_usb.c.obj
 .text          0x00000000        0x0 CMakeFiles/fm_example.dir/home/pi/pico/pico-sdk/lib/tinyusb/src/device/usbd.c.obj
 .data          0x00000000        0x0 CMakeFiles/fm_example.dir/home/pi/pico/pico-sdk/lib/tinyusb/src/device/usbd.c.obj
 .bss           0x00000000        0x0 CMakeFiles/fm_example.dir/home/pi/pico/pico-sdk/lib/tinyusb/src/device/usbd.c.obj
 .text.tud_speed_get
                0x00000000        0xc CMakeFiles/fm_example.dir/home/pi/pico/pico-sdk/lib/tinyusb/src/device/usbd.c.obj
 .text.tud_connected
                0x00000000       0x10 CMakeFiles/fm_example.dir/home/pi/pico/pico-sdk/lib/tinyusb/src/device/usbd.c.obj
 .text.tud_remote_wakeup
                0x00000000       0x2c CMakeFiles/fm_example.dir/home/pi/pico/pico-sdk/lib/tinyusb/src/device/usbd.c.obj
 .text.tud_disconnect
                0x00000000       0x1c CMakeFiles/fm_example.dir/home/pi/pico/pico-sdk/lib/tinyusb/src/device/usbd.c.obj
 .text.tud_connect
                0x00000000       0x1c CMakeFiles/fm_example.dir/home/pi/pico/pico-sdk/lib/tinyusb/src/device/usbd.c.obj
 .text.tud_task_event_ready
                0x00000000       0x20 CMakeFiles/fm_example.dir/home/pi/pico/pico-sdk/lib/tinyusb/src/device/usbd.c.obj
 .text.usbd_defer_func
                0x00000000       0x1e CMakeFiles/fm_example.dir/home/pi/pico/pico-sdk/lib/tinyusb/src/device/usbd.c.obj
 .text.usbd_edpt_xfer_fifo
                0x00000000       0x80 CMakeFiles/fm_example.dir/home/pi/pico/pico-sdk/lib/tinyusb/src/device/usbd.c.obj
 .text.usbd_edpt_busy
                0x00000000       0x1c CMakeFiles/fm_example.dir/home/pi/pico/pico-sdk/lib/tinyusb/src/device/usbd.c.obj
 .text.usbd_edpt_close
                0x00000000       0x2c CMakeFiles/fm_example.dir/home/pi/pico/pico-sdk/lib/tinyusb/src/device/usbd.c.obj
 .rodata.__func__.7461
                0x00000000       0x14 CMakeFiles/fm_example.dir/home/pi/pico/pico-sdk/lib/tinyusb/src/device/usbd.c.obj
 .rodata.__func__.7490
                0x00000000       0x10 CMakeFiles/fm_example.dir/home/pi/pico/pico-sdk/lib/tinyusb/src/device/usbd.c.obj
 .text          0x00000000        0x0 CMakeFiles/fm_example.dir/home/pi/pico/pico-sdk/lib/tinyusb/src/device/usbd_control.c.obj
 .data          0x00000000        0x0 CMakeFiles/fm_example.dir/home/pi/pico/pico-sdk/lib/tinyusb/src/device/usbd_control.c.obj
 .bss           0x00000000        0x0 CMakeFiles/fm_example.dir/home/pi/pico/pico-sdk/lib/tinyusb/src/device/usbd_control.c.obj
 .text          0x00000000        0x0 CMakeFiles/fm_example.dir/home/pi/pico/pico-sdk/lib/tinyusb/src/class/audio/audio_device.c.obj
 .data          0x00000000        0x0 CMakeFiles/fm_example.dir/home/pi/pico/pico-sdk/lib/tinyusb/src/class/audio/audio_device.c.obj
 .bss           0x00000000        0x0 CMakeFiles/fm_example.dir/home/pi/pico/pico-sdk/lib/tinyusb/src/class/audio/audio_device.c.obj
 .debug_info    0x00000000       0x86 CMakeFiles/fm_example.dir/home/pi/pico/pico-sdk/lib/tinyusb/src/class/audio/audio_device.c.obj
 .debug_abbrev  0x00000000       0x4d CMakeFiles/fm_example.dir/home/pi/pico/pico-sdk/lib/tinyusb/src/class/audio/audio_device.c.obj
 .debug_aranges
                0x00000000       0x18 CMakeFiles/fm_example.dir/home/pi/pico/pico-sdk/lib/tinyusb/src/class/audio/audio_device.c.obj
 .debug_line    0x00000000       0xb7 CMakeFiles/fm_example.dir/home/pi/pico/pico-sdk/lib/tinyusb/src/class/audio/audio_device.c.obj
 .debug_str     0x00000000      0x1b4 CMakeFiles/fm_example.dir/home/pi/pico/pico-sdk/lib/tinyusb/src/class/audio/audio_device.c.obj
 .comment       0x00000000       0x58 CMakeFiles/fm_example.dir/home/pi/pico/pico-sdk/lib/tinyusb/src/class/audio/audio_device.c.obj
 .ARM.attributes
                0x00000000       0x32 CMakeFiles/fm_example.dir/home/pi/pico/pico-sdk/lib/tinyusb/src/class/audio/audio_device.c.obj
 .text          0x00000000        0x0 CMakeFiles/fm_example.dir/home/pi/pico/pico-sdk/lib/tinyusb/src/class/cdc/cdc_device.c.obj
 .data          0x00000000        0x0 CMakeFiles/fm_example.dir/home/pi/pico/pico-sdk/lib/tinyusb/src/class/cdc/cdc_device.c.obj
 .bss           0x00000000        0x0 CMakeFiles/fm_example.dir/home/pi/pico/pico-sdk/lib/tinyusb/src/class/cdc/cdc_device.c.obj
 .text.tud_cdc_n_get_line_state
                0x00000000       0x14 CMakeFiles/fm_example.dir/home/pi/pico/pico-sdk/lib/tinyusb/src/class/cdc/cdc_device.c.obj
 .text.tud_cdc_n_get_line_coding
                0x00000000       0x20 CMakeFiles/fm_example.dir/home/pi/pico/pico-sdk/lib/tinyusb/src/class/cdc/cdc_device.c.obj
 .text.tud_cdc_n_set_wanted_char
                0x00000000       0x14 CMakeFiles/fm_example.dir/home/pi/pico/pico-sdk/lib/tinyusb/src/class/cdc/cdc_device.c.obj
 .text.tud_cdc_n_peek
                0x00000000       0x1c CMakeFiles/fm_example.dir/home/pi/pico/pico-sdk/lib/tinyusb/src/class/cdc/cdc_device.c.obj
 .text.tud_cdc_n_read_flush
                0x00000000       0x20 CMakeFiles/fm_example.dir/home/pi/pico/pico-sdk/lib/tinyusb/src/class/cdc/cdc_device.c.obj
 .text.tud_cdc_n_write_clear
                0x00000000       0x1c CMakeFiles/fm_example.dir/home/pi/pico/pico-sdk/lib/tinyusb/src/class/cdc/cdc_device.c.obj
 .text          0x00000000        0x0 CMakeFiles/fm_example.dir/home/pi/pico/pico-sdk/lib/tinyusb/src/class/dfu/dfu_device.c.obj
 .data          0x00000000        0x0 CMakeFiles/fm_example.dir/home/pi/pico/pico-sdk/lib/tinyusb/src/class/dfu/dfu_device.c.obj
 .bss           0x00000000        0x0 CMakeFiles/fm_example.dir/home/pi/pico/pico-sdk/lib/tinyusb/src/class/dfu/dfu_device.c.obj
 .debug_info    0x00000000       0x86 CMakeFiles/fm_example.dir/home/pi/pico/pico-sdk/lib/tinyusb/src/class/dfu/dfu_device.c.obj
 .debug_abbrev  0x00000000       0x4d CMakeFiles/fm_example.dir/home/pi/pico/pico-sdk/lib/tinyusb/src/class/dfu/dfu_device.c.obj
 .debug_aranges
                0x00000000       0x18 CMakeFiles/fm_example.dir/home/pi/pico/pico-sdk/lib/tinyusb/src/class/dfu/dfu_device.c.obj
 .debug_line    0x00000000       0xb7 CMakeFiles/fm_example.dir/home/pi/pico/pico-sdk/lib/tinyusb/src/class/dfu/dfu_device.c.obj
 .debug_str     0x00000000      0x1b0 CMakeFiles/fm_example.dir/home/pi/pico/pico-sdk/lib/tinyusb/src/class/dfu/dfu_device.c.obj
 .comment       0x00000000       0x58 CMakeFiles/fm_example.dir/home/pi/pico/pico-sdk/lib/tinyusb/src/class/dfu/dfu_device.c.obj
 .ARM.attributes
                0x00000000       0x32 CMakeFiles/fm_example.dir/home/pi/pico/pico-sdk/lib/tinyusb/src/class/dfu/dfu_device.c.obj
 .text          0x00000000        0x0 CMakeFiles/fm_example.dir/home/pi/pico/pico-sdk/lib/tinyusb/src/class/dfu/dfu_rt_device.c.obj
 .data          0x00000000        0x0 CMakeFiles/fm_example.dir/home/pi/pico/pico-sdk/lib/tinyusb/src/class/dfu/dfu_rt_device.c.obj
 .bss           0x00000000        0x0 CMakeFiles/fm_example.dir/home/pi/pico/pico-sdk/lib/tinyusb/src/class/dfu/dfu_rt_device.c.obj
 .debug_info    0x00000000       0x86 CMakeFiles/fm_example.dir/home/pi/pico/pico-sdk/lib/tinyusb/src/class/dfu/dfu_rt_device.c.obj
 .debug_abbrev  0x00000000       0x4d CMakeFiles/fm_example.dir/home/pi/pico/pico-sdk/lib/tinyusb/src/class/dfu/dfu_rt_device.c.obj
 .debug_aranges
                0x00000000       0x18 CMakeFiles/fm_example.dir/home/pi/pico/pico-sdk/lib/tinyusb/src/class/dfu/dfu_rt_device.c.obj
 .debug_line    0x00000000       0xb7 CMakeFiles/fm_example.dir/home/pi/pico/pico-sdk/lib/tinyusb/src/class/dfu/dfu_rt_device.c.obj
 .debug_str     0x00000000      0x1b3 CMakeFiles/fm_example.dir/home/pi/pico/pico-sdk/lib/tinyusb/src/class/dfu/dfu_rt_device.c.obj
 .comment       0x00000000       0x58 CMakeFiles/fm_example.dir/home/pi/pico/pico-sdk/lib/tinyusb/src/class/dfu/dfu_rt_device.c.obj
 .ARM.attributes
                0x00000000       0x32 CMakeFiles/fm_example.dir/home/pi/pico/pico-sdk/lib/tinyusb/src/class/dfu/dfu_rt_device.c.obj
 .text          0x00000000        0x0 CMakeFiles/fm_example.dir/home/pi/pico/pico-sdk/lib/tinyusb/src/class/hid/hid_device.c.obj
 .data          0x00000000        0x0 CMakeFiles/fm_example.dir/home/pi/pico/pico-sdk/lib/tinyusb/src/class/hid/hid_device.c.obj
 .bss           0x00000000        0x0 CMakeFiles/fm_example.dir/home/pi/pico/pico-sdk/lib/tinyusb/src/class/hid/hid_device.c.obj
 .debug_info    0x00000000       0x86 CMakeFiles/fm_example.dir/home/pi/pico/pico-sdk/lib/tinyusb/src/class/hid/hid_device.c.obj
 .debug_abbrev  0x00000000       0x4d CMakeFiles/fm_example.dir/home/pi/pico/pico-sdk/lib/tinyusb/src/class/hid/hid_device.c.obj
 .debug_aranges
                0x00000000       0x18 CMakeFiles/fm_example.dir/home/pi/pico/pico-sdk/lib/tinyusb/src/class/hid/hid_device.c.obj
 .debug_line    0x00000000       0xb7 CMakeFiles/fm_example.dir/home/pi/pico/pico-sdk/lib/tinyusb/src/class/hid/hid_device.c.obj
 .debug_str     0x00000000      0x1b0 CMakeFiles/fm_example.dir/home/pi/pico/pico-sdk/lib/tinyusb/src/class/hid/hid_device.c.obj
 .comment       0x00000000       0x58 CMakeFiles/fm_example.dir/home/pi/pico/pico-sdk/lib/tinyusb/src/class/hid/hid_device.c.obj
 .ARM.attributes
                0x00000000       0x32 CMakeFiles/fm_example.dir/home/pi/pico/pico-sdk/lib/tinyusb/src/class/hid/hid_device.c.obj
 .text          0x00000000        0x0 CMakeFiles/fm_example.dir/home/pi/pico/pico-sdk/lib/tinyusb/src/class/midi/midi_device.c.obj
 .data          0x00000000        0x0 CMakeFiles/fm_example.dir/home/pi/pico/pico-sdk/lib/tinyusb/src/class/midi/midi_device.c.obj
 .bss           0x00000000        0x0 CMakeFiles/fm_example.dir/home/pi/pico/pico-sdk/lib/tinyusb/src/class/midi/midi_device.c.obj
 .debug_info    0x00000000       0x86 CMakeFiles/fm_example.dir/home/pi/pico/pico-sdk/lib/tinyusb/src/class/midi/midi_device.c.obj
 .debug_abbrev  0x00000000       0x4d CMakeFiles/fm_example.dir/home/pi/pico/pico-sdk/lib/tinyusb/src/class/midi/midi_device.c.obj
 .debug_aranges
                0x00000000       0x18 CMakeFiles/fm_example.dir/home/pi/pico/pico-sdk/lib/tinyusb/src/class/midi/midi_device.c.obj
 .debug_line    0x00000000       0xb7 CMakeFiles/fm_example.dir/home/pi/pico/pico-sdk/lib/tinyusb/src/class/midi/midi_device.c.obj
 .debug_str     0x00000000      0x1b2 CMakeFiles/fm_example.dir/home/pi/pico/pico-sdk/lib/tinyusb/src/class/midi/midi_device.c.obj
 .comment       0x00000000       0x58 CMakeFiles/fm_example.dir/home/pi/pico/pico-sdk/lib/tinyusb/src/class/midi/midi_device.c.obj
 .ARM.attributes
                0x00000000       0x32 CMakeFiles/fm_example.dir/home/pi/pico/pico-sdk/lib/tinyusb/src/class/midi/midi_device.c.obj
 .text          0x00000000        0x0 CMakeFiles/fm_example.dir/home/pi/pico/pico-sdk/lib/tinyusb/src/class/msc/msc_device.c.obj
 .data          0x00000000        0x0 CMakeFiles/fm_example.dir/home/pi/pico/pico-sdk/lib/tinyusb/src/class/msc/msc_device.c.obj
 .bss           0x00000000        0x0 CMakeFiles/fm_example.dir/home/pi/pico/pico-sdk/lib/tinyusb/src/class/msc/msc_device.c.obj
 .debug_info    0x00000000       0x86 CMakeFiles/fm_example.dir/home/pi/pico/pico-sdk/lib/tinyusb/src/class/msc/msc_device.c.obj
 .debug_abbrev  0x00000000       0x4d CMakeFiles/fm_example.dir/home/pi/pico/pico-sdk/lib/tinyusb/src/class/msc/msc_device.c.obj
 .debug_aranges
                0x00000000       0x18 CMakeFiles/fm_example.dir/home/pi/pico/pico-sdk/lib/tinyusb/src/class/msc/msc_device.c.obj
 .debug_line    0x00000000       0xb7 CMakeFiles/fm_example.dir/home/pi/pico/pico-sdk/lib/tinyusb/src/class/msc/msc_device.c.obj
 .debug_str     0x00000000      0x1b0 CMakeFiles/fm_example.dir/home/pi/pico/pico-sdk/lib/tinyusb/src/class/msc/msc_device.c.obj
 .comment       0x00000000       0x58 CMakeFiles/fm_example.dir/home/pi/pico/pico-sdk/lib/tinyusb/src/class/msc/msc_device.c.obj
 .ARM.attributes
                0x00000000       0x32 CMakeFiles/fm_example.dir/home/pi/pico/pico-sdk/lib/tinyusb/src/class/msc/msc_device.c.obj
 .text          0x00000000        0x0 CMakeFiles/fm_example.dir/home/pi/pico/pico-sdk/lib/tinyusb/src/class/net/net_device.c.obj
 .data          0x00000000        0x0 CMakeFiles/fm_example.dir/home/pi/pico/pico-sdk/lib/tinyusb/src/class/net/net_device.c.obj
 .bss           0x00000000        0x0 CMakeFiles/fm_example.dir/home/pi/pico/pico-sdk/lib/tinyusb/src/class/net/net_device.c.obj
 .debug_info    0x00000000       0x86 CMakeFiles/fm_example.dir/home/pi/pico/pico-sdk/lib/tinyusb/src/class/net/net_device.c.obj
 .debug_abbrev  0x00000000       0x4d CMakeFiles/fm_example.dir/home/pi/pico/pico-sdk/lib/tinyusb/src/class/net/net_device.c.obj
 .debug_aranges
                0x00000000       0x18 CMakeFiles/fm_example.dir/home/pi/pico/pico-sdk/lib/tinyusb/src/class/net/net_device.c.obj
 .debug_line    0x00000000       0xb7 CMakeFiles/fm_example.dir/home/pi/pico/pico-sdk/lib/tinyusb/src/class/net/net_device.c.obj
 .debug_str     0x00000000      0x1b0 CMakeFiles/fm_example.dir/home/pi/pico/pico-sdk/lib/tinyusb/src/class/net/net_device.c.obj
 .comment       0x00000000       0x58 CMakeFiles/fm_example.dir/home/pi/pico/pico-sdk/lib/tinyusb/src/class/net/net_device.c.obj
 .ARM.attributes
                0x00000000       0x32 CMakeFiles/fm_example.dir/home/pi/pico/pico-sdk/lib/tinyusb/src/class/net/net_device.c.obj
 .text          0x00000000        0x0 CMakeFiles/fm_example.dir/home/pi/pico/pico-sdk/lib/tinyusb/src/class/usbtmc/usbtmc_device.c.obj
 .data          0x00000000        0x0 CMakeFiles/fm_example.dir/home/pi/pico/pico-sdk/lib/tinyusb/src/class/usbtmc/usbtmc_device.c.obj
 .bss           0x00000000        0x0 CMakeFiles/fm_example.dir/home/pi/pico/pico-sdk/lib/tinyusb/src/class/usbtmc/usbtmc_device.c.obj
 .debug_info    0x00000000       0x86 CMakeFiles/fm_example.dir/home/pi/pico/pico-sdk/lib/tinyusb/src/class/usbtmc/usbtmc_device.c.obj
 .debug_abbrev  0x00000000       0x4d CMakeFiles/fm_example.dir/home/pi/pico/pico-sdk/lib/tinyusb/src/class/usbtmc/usbtmc_device.c.obj
 .debug_aranges
                0x00000000       0x18 CMakeFiles/fm_example.dir/home/pi/pico/pico-sdk/lib/tinyusb/src/class/usbtmc/usbtmc_device.c.obj
 .debug_line    0x00000000       0xb7 CMakeFiles/fm_example.dir/home/pi/pico/pico-sdk/lib/tinyusb/src/class/usbtmc/usbtmc_device.c.obj
 .debug_str     0x00000000      0x1b6 CMakeFiles/fm_example.dir/home/pi/pico/pico-sdk/lib/tinyusb/src/class/usbtmc/usbtmc_device.c.obj
 .comment       0x00000000       0x58 CMakeFiles/fm_example.dir/home/pi/pico/pico-sdk/lib/tinyusb/src/class/usbtmc/usbtmc_device.c.obj
 .ARM.attributes
                0x00000000       0x32 CMakeFiles/fm_example.dir/home/pi/pico/pico-sdk/lib/tinyusb/src/class/usbtmc/usbtmc_device.c.obj
 .text          0x00000000        0x0 CMakeFiles/fm_example.dir/home/pi/pico/pico-sdk/lib/tinyusb/src/class/vendor/vendor_device.c.obj
 .data          0x00000000        0x0 CMakeFiles/fm_example.dir/home/pi/pico/pico-sdk/lib/tinyusb/src/class/vendor/vendor_device.c.obj
 .bss           0x00000000        0x0 CMakeFiles/fm_example.dir/home/pi/pico/pico-sdk/lib/tinyusb/src/class/vendor/vendor_device.c.obj
 .debug_info    0x00000000       0x86 CMakeFiles/fm_example.dir/home/pi/pico/pico-sdk/lib/tinyusb/src/class/vendor/vendor_device.c.obj
 .debug_abbrev  0x00000000       0x4d CMakeFiles/fm_example.dir/home/pi/pico/pico-sdk/lib/tinyusb/src/class/vendor/vendor_device.c.obj
 .debug_aranges
                0x00000000       0x18 CMakeFiles/fm_example.dir/home/pi/pico/pico-sdk/lib/tinyusb/src/class/vendor/vendor_device.c.obj
 .debug_line    0x00000000       0xb7 CMakeFiles/fm_example.dir/home/pi/pico/pico-sdk/lib/tinyusb/src/class/vendor/vendor_device.c.obj
 .debug_str     0x00000000      0x1b6 CMakeFiles/fm_example.dir/home/pi/pico/pico-sdk/lib/tinyusb/src/class/vendor/vendor_device.c.obj
 .comment       0x00000000       0x58 CMakeFiles/fm_example.dir/home/pi/pico/pico-sdk/lib/tinyusb/src/class/vendor/vendor_device.c.obj
 .ARM.attributes
                0x00000000       0x32 CMakeFiles/fm_example.dir/home/pi/pico/pico-sdk/lib/tinyusb/src/class/vendor/vendor_device.c.obj
 .text          0x00000000        0x0 CMakeFiles/fm_example.dir/home/pi/pico/pico-sdk/lib/tinyusb/src/tusb.c.obj
 .data          0x00000000        0x0 CMakeFiles/fm_example.dir/home/pi/pico/pico-sdk/lib/tinyusb/src/tusb.c.obj
 .bss           0x00000000        0x0 CMakeFiles/fm_example.dir/home/pi/pico/pico-sdk/lib/tinyusb/src/tusb.c.obj
 .text.dump_str_line
                0x00000000       0x40 CMakeFiles/fm_example.dir/home/pi/pico/pico-sdk/lib/tinyusb/src/tusb.c.obj
 .text.tu_print_mem
                0x00000000       0xd8 CMakeFiles/fm_example.dir/home/pi/pico/pico-sdk/lib/tinyusb/src/tusb.c.obj
 .rodata.dump_str_line.str1.4
                0x00000000        0x7 CMakeFiles/fm_example.dir/home/pi/pico/pico-sdk/lib/tinyusb/src/tusb.c.obj
 .rodata.str1.4
                0x00000000      0x132 CMakeFiles/fm_example.dir/home/pi/pico/pico-sdk/lib/tinyusb/src/tusb.c.obj
 .rodata.tu_print_mem.str1.4
                0x00000000       0x15 CMakeFiles/fm_example.dir/home/pi/pico/pico-sdk/lib/tinyusb/src/tusb.c.obj
 .rodata.tusb_strerr
                0x00000000       0x2c CMakeFiles/fm_example.dir/home/pi/pico/pico-sdk/lib/tinyusb/src/tusb.c.obj
 .text          0x00000000        0x0 CMakeFiles/fm_example.dir/home/pi/pico/pico-sdk/lib/tinyusb/src/common/tusb_fifo.c.obj
 .data          0x00000000        0x0 CMakeFiles/fm_example.dir/home/pi/pico/pico-sdk/lib/tinyusb/src/common/tusb_fifo.c.obj
 .bss           0x00000000        0x0 CMakeFiles/fm_example.dir/home/pi/pico/pico-sdk/lib/tinyusb/src/common/tusb_fifo.c.obj
 .text.tu_fifo_full
                0x00000000       0x22 CMakeFiles/fm_example.dir/home/pi/pico/pico-sdk/lib/tinyusb/src/common/tusb_fifo.c.obj
 .text.tu_fifo_overflowed
                0x00000000       0x20 CMakeFiles/fm_example.dir/home/pi/pico/pico-sdk/lib/tinyusb/src/common/tusb_fifo.c.obj
 .text.tu_fifo_correct_read_pointer
                0x00000000       0x2c CMakeFiles/fm_example.dir/home/pi/pico/pico-sdk/lib/tinyusb/src/common/tusb_fifo.c.obj
 .text.tu_fifo_read_n_const_addr_full_words
                0x00000000        0xa CMakeFiles/fm_example.dir/home/pi/pico/pico-sdk/lib/tinyusb/src/common/tusb_fifo.c.obj
 .text.tu_fifo_peek
                0x00000000       0x34 CMakeFiles/fm_example.dir/home/pi/pico/pico-sdk/lib/tinyusb/src/common/tusb_fifo.c.obj
 .text.tu_fifo_peek_n
                0x00000000       0x44 CMakeFiles/fm_example.dir/home/pi/pico/pico-sdk/lib/tinyusb/src/common/tusb_fifo.c.obj
 .text.tu_fifo_write_n_const_addr_full_words
                0x00000000        0xa CMakeFiles/fm_example.dir/home/pi/pico/pico-sdk/lib/tinyusb/src/common/tusb_fifo.c.obj
 .text.tu_fifo_advance_write_pointer
                0x00000000       0x12 CMakeFiles/fm_example.dir/home/pi/pico/pico-sdk/lib/tinyusb/src/common/tusb_fifo.c.obj
 .text.tu_fifo_advance_read_pointer
                0x00000000       0x12 CMakeFiles/fm_example.dir/home/pi/pico/pico-sdk/lib/tinyusb/src/common/tusb_fifo.c.obj
 .text.tu_fifo_get_read_info
                0x00000000       0xa2 CMakeFiles/fm_example.dir/home/pi/pico/pico-sdk/lib/tinyusb/src/common/tusb_fifo.c.obj
 .text.tu_fifo_get_write_info
                0x00000000       0x7a CMakeFiles/fm_example.dir/home/pi/pico/pico-sdk/lib/tinyusb/src/common/tusb_fifo.c.obj
 .text          0x00000000        0x0 CMakeFiles/fm_example.dir/home/pi/pico/pico-sdk/src/rp2_common/pico_fix/rp2040_usb_device_enumeration/rp2040_usb_device_enumeration.c.obj
 .data          0x00000000        0x0 CMakeFiles/fm_example.dir/home/pi/pico/pico-sdk/src/rp2_common/pico_fix/rp2040_usb_device_enumeration/rp2040_usb_device_enumeration.c.obj
 .bss           0x00000000        0x0 CMakeFiles/fm_example.dir/home/pi/pico/pico-sdk/src/rp2_common/pico_fix/rp2040_usb_device_enumeration/rp2040_usb_device_enumeration.c.obj
 .text.hw_enumeration_fix_finish
                0x00000000       0x40 CMakeFiles/fm_example.dir/home/pi/pico/pico-sdk/src/rp2_common/pico_fix/rp2040_usb_device_enumeration/rp2040_usb_device_enumeration.c.obj
 .text.hw_enumeration_fix_force_ls_j_done
                0x00000000        0xc CMakeFiles/fm_example.dir/home/pi/pico/pico-sdk/src/rp2_common/pico_fix/rp2040_usb_device_enumeration/rp2040_usb_device_enumeration.c.obj
 .text.hw_enumeration_fix_force_ls_j
                0x00000000      0x128 CMakeFiles/fm_example.dir/home/pi/pico/pico-sdk/src/rp2_common/pico_fix/rp2040_usb_device_enumeration/rp2040_usb_device_enumeration.c.obj
 .text.hw_enumeration_fix_wait_se0_callback
                0x00000000       0x24 CMakeFiles/fm_example.dir/home/pi/pico/pico-sdk/src/rp2_common/pico_fix/rp2040_usb_device_enumeration/rp2040_usb_device_enumeration.c.obj
 .text.hw_enumeration_fix_wait_se0
                0x00000000       0x88 CMakeFiles/fm_example.dir/home/pi/pico/pico-sdk/src/rp2_common/pico_fix/rp2040_usb_device_enumeration/rp2040_usb_device_enumeration.c.obj
 .text.rp2040_usb_device_enumeration_fix
                0x00000000        0x8 CMakeFiles/fm_example.dir/home/pi/pico/pico-sdk/src/rp2_common/pico_fix/rp2040_usb_device_enumeration/rp2040_usb_device_enumeration.c.obj
 .bss.gpio_ctrl_prev
                0x00000000        0x4 CMakeFiles/fm_example.dir/home/pi/pico/pico-sdk/src/rp2_common/pico_fix/rp2040_usb_device_enumeration/rp2040_usb_device_enumeration.c.obj
 .bss.pad_ctrl_prev
                0x00000000        0x4 CMakeFiles/fm_example.dir/home/pi/pico/pico-sdk/src/rp2_common/pico_fix/rp2040_usb_device_enumeration/rp2040_usb_device_enumeration.c.obj
 .rodata.__func__.4173
                0x00000000       0x15 CMakeFiles/fm_example.dir/home/pi/pico/pico-sdk/src/rp2_common/pico_fix/rp2040_usb_device_enumeration/rp2040_usb_device_enumeration.c.obj
 .rodata.__func__.4764
                0x00000000       0x1e CMakeFiles/fm_example.dir/home/pi/pico/pico-sdk/src/rp2_common/pico_fix/rp2040_usb_device_enumeration/rp2040_usb_device_enumeration.c.obj
 .rodata.hw_enumeration_fix_force_ls_j.str1.4
                0x00000000      0x109 CMakeFiles/fm_example.dir/home/pi/pico/pico-sdk/src/rp2_common/pico_fix/rp2040_usb_device_enumeration/rp2040_usb_device_enumeration.c.obj
 .debug_info    0x00000000      0xc7b CMakeFiles/fm_example.dir/home/pi/pico/pico-sdk/src/rp2_common/pico_fix/rp2040_usb_device_enumeration/rp2040_usb_device_enumeration.c.obj
 .debug_abbrev  0x00000000      0x33a CMakeFiles/fm_example.dir/home/pi/pico/pico-sdk/src/rp2_common/pico_fix/rp2040_usb_device_enumeration/rp2040_usb_device_enumeration.c.obj
 .debug_loc     0x00000000      0x4e3 CMakeFiles/fm_example.dir/home/pi/pico/pico-sdk/src/rp2_common/pico_fix/rp2040_usb_device_enumeration/rp2040_usb_device_enumeration.c.obj
 .debug_aranges
                0x00000000       0x48 CMakeFiles/fm_example.dir/home/pi/pico/pico-sdk/src/rp2_common/pico_fix/rp2040_usb_device_enumeration/rp2040_usb_device_enumeration.c.obj
 .debug_ranges  0x00000000      0x158 CMakeFiles/fm_example.dir/home/pi/pico/pico-sdk/src/rp2_common/pico_fix/rp2040_usb_device_enumeration/rp2040_usb_device_enumeration.c.obj
 .debug_line    0x00000000      0x442 CMakeFiles/fm_example.dir/home/pi/pico/pico-sdk/src/rp2_common/pico_fix/rp2040_usb_device_enumeration/rp2040_usb_device_enumeration.c.obj
 .debug_str     0x00000000      0x75b CMakeFiles/fm_example.dir/home/pi/pico/pico-sdk/src/rp2_common/pico_fix/rp2040_usb_device_enumeration/rp2040_usb_device_enumeration.c.obj
 .comment       0x00000000       0x58 CMakeFiles/fm_example.dir/home/pi/pico/pico-sdk/src/rp2_common/pico_fix/rp2040_usb_device_enumeration/rp2040_usb_device_enumeration.c.obj
 .debug_frame   0x00000000       0xa8 CMakeFiles/fm_example.dir/home/pi/pico/pico-sdk/src/rp2_common/pico_fix/rp2040_usb_device_enumeration/rp2040_usb_device_enumeration.c.obj
 .ARM.attributes
                0x00000000       0x32 CMakeFiles/fm_example.dir/home/pi/pico/pico-sdk/src/rp2_common/pico_fix/rp2040_usb_device_enumeration/rp2040_usb_device_enumeration.c.obj
 .text          0x00000000        0x0 CMakeFiles/fm_example.dir/home/pi/pico/pico-sdk/src/rp2_common/pico_unique_id/unique_id.c.obj
 .data          0x00000000        0x0 CMakeFiles/fm_example.dir/home/pi/pico/pico-sdk/src/rp2_common/pico_unique_id/unique_id.c.obj
 .bss           0x00000000        0x0 CMakeFiles/fm_example.dir/home/pi/pico/pico-sdk/src/rp2_common/pico_unique_id/unique_id.c.obj
 .text.pico_get_unique_board_id
                0x00000000       0x10 CMakeFiles/fm_example.dir/home/pi/pico/pico-sdk/src/rp2_common/pico_unique_id/unique_id.c.obj
 .text          0x00000000        0x0 CMakeFiles/fm_example.dir/home/pi/pico/pico-sdk/src/rp2_common/hardware_flash/flash.c.obj
 .data          0x00000000        0x0 CMakeFiles/fm_example.dir/home/pi/pico/pico-sdk/src/rp2_common/hardware_flash/flash.c.obj
 .bss           0x00000000        0x0 CMakeFiles/fm_example.dir/home/pi/pico/pico-sdk/src/rp2_common/hardware_flash/flash.c.obj
 .time_critical.flash_range_erase
                0x00000000       0xa0 CMakeFiles/fm_example.dir/home/pi/pico/pico-sdk/src/rp2_common/hardware_flash/flash.c.obj
 .time_critical.flash_range_program
                0x00000000       0x9c CMakeFiles/fm_example.dir/home/pi/pico/pico-sdk/src/rp2_common/hardware_flash/flash.c.obj
 .rodata.__func__.4329
                0x00000000       0x12 CMakeFiles/fm_example.dir/home/pi/pico/pico-sdk/src/rp2_common/hardware_flash/flash.c.obj
 .rodata.__func__.4353
                0x00000000       0x14 CMakeFiles/fm_example.dir/home/pi/pico/pico-sdk/src/rp2_common/hardware_flash/flash.c.obj
 .text          0x00000000        0x0 CMakeFiles/fm_example.dir/pico-ss-oled/BitBang_I2C.c.obj
 .data          0x00000000        0x0 CMakeFiles/fm_example.dir/pico-ss-oled/BitBang_I2C.c.obj
 .bss           0x00000000        0x0 CMakeFiles/fm_example.dir/pico-ss-oled/BitBang_I2C.c.obj
 .text.I2CScan  0x00000000       0x44 CMakeFiles/fm_example.dir/pico-ss-oled/BitBang_I2C.c.obj
 .text.I2CRead  0x00000000       0x16 CMakeFiles/fm_example.dir/pico-ss-oled/BitBang_I2C.c.obj
 .text.I2CDiscoverDevice
                0x00000000      0x440 CMakeFiles/fm_example.dir/pico-ss-oled/BitBang_I2C.c.obj
 .text          0x00000000        0x0 CMakeFiles/fm_example.dir/pico-ss-oled/ss_oled.c.obj
 .data          0x00000000        0x0 CMakeFiles/fm_example.dir/pico-ss-oled/ss_oled.c.obj
 .bss           0x00000000        0x0 CMakeFiles/fm_example.dir/pico-ss-oled/ss_oled.c.obj
 .text.pgm_read_byte
                0x00000000        0x4 CMakeFiles/fm_example.dir/pico-ss-oled/ss_oled.c.obj
 .text.pgm_read_word
                0x00000000        0xc CMakeFiles/fm_example.dir/pico-ss-oled/ss_oled.c.obj
 .text.__DrawScaledPixel
                0x00000000       0x62 CMakeFiles/fm_example.dir/pico-ss-oled/ss_oled.c.obj
 .text.__DrawScaledLine
                0x00000000       0x82 CMakeFiles/fm_example.dir/pico-ss-oled/ss_oled.c.obj
 .text.BresenhamCircle
                0x00000000      0x136 CMakeFiles/fm_example.dir/pico-ss-oled/ss_oled.c.obj
 .text.__oledWriteCommand
                0x00000000       0x18 CMakeFiles/fm_example.dir/pico-ss-oled/ss_oled.c.obj
 .text.__oledPower
                0x00000000       0x16 CMakeFiles/fm_example.dir/pico-ss-oled/ss_oled.c.obj
 .text.__oledScrollBuffer
                0x00000000       0xd4 CMakeFiles/fm_example.dir/pico-ss-oled/ss_oled.c.obj
 .text.__oledWriteFlashBlock
                0x00000000       0xa6 CMakeFiles/fm_example.dir/pico-ss-oled/ss_oled.c.obj
 .text.__oledRepeatByte
                0x00000000       0x8e CMakeFiles/fm_example.dir/pico-ss-oled/ss_oled.c.obj
 .text.__oledPlayAnimFrame
                0x00000000      0x1ae CMakeFiles/fm_example.dir/pico-ss-oled/ss_oled.c.obj
 .text.__oledDrawSprite
                0x00000000      0x164 CMakeFiles/fm_example.dir/pico-ss-oled/ss_oled.c.obj
 .text.__oledSetPixel
                0x00000000       0xec CMakeFiles/fm_example.dir/pico-ss-oled/ss_oled.c.obj
 .text.__oledDrawTile
                0x00000000      0x1f2 CMakeFiles/fm_example.dir/pico-ss-oled/ss_oled.c.obj
 .text.__oledLoadBMP
                0x00000000      0x178 CMakeFiles/fm_example.dir/pico-ss-oled/ss_oled.c.obj
 .text.__oledSetCursor
                0x00000000        0x6 CMakeFiles/fm_example.dir/pico-ss-oled/ss_oled.c.obj
 .text.__oledSetTextWrap
                0x00000000        0x4 CMakeFiles/fm_example.dir/pico-ss-oled/ss_oled.c.obj
 .text.__oledDrawGFX
                0x00000000       0xc0 CMakeFiles/fm_example.dir/pico-ss-oled/ss_oled.c.obj
 .text.__oledDumpBuffer
                0x00000000       0xa2 CMakeFiles/fm_example.dir/pico-ss-oled/ss_oled.c.obj
 .text.__oledDrawLine
                0x00000000      0x288 CMakeFiles/fm_example.dir/pico-ss-oled/ss_oled.c.obj
 .text.__oledEllipse
                0x00000000       0xb0 CMakeFiles/fm_example.dir/pico-ss-oled/ss_oled.c.obj
 .text.__oledRectangle
                0x00000000      0x2c4 CMakeFiles/fm_example.dir/pico-ss-oled/ss_oled.c.obj
 .text          0x00000000        0x0 CMakeFiles/fm_example.dir/pico-ss-oled/ss_oled.cpp.obj
 .data          0x00000000        0x0 CMakeFiles/fm_example.dir/pico-ss-oled/ss_oled.cpp.obj
 .bss           0x00000000        0x0 CMakeFiles/fm_example.dir/pico-ss-oled/ss_oled.cpp.obj
 .debug_info    0x00000000      0x3c0 CMakeFiles/fm_example.dir/pico-ss-oled/ss_oled.cpp.obj
 .debug_abbrev  0x00000000       0xff CMakeFiles/fm_example.dir/pico-ss-oled/ss_oled.cpp.obj
 .debug_aranges
                0x00000000       0x18 CMakeFiles/fm_example.dir/pico-ss-oled/ss_oled.cpp.obj
 .debug_line    0x00000000      0x33a CMakeFiles/fm_example.dir/pico-ss-oled/ss_oled.cpp.obj
 .debug_str     0x00000000      0x495 CMakeFiles/fm_example.dir/pico-ss-oled/ss_oled.cpp.obj
 .comment       0x00000000       0x58 CMakeFiles/fm_example.dir/pico-ss-oled/ss_oled.cpp.obj
 .ARM.attributes
                0x00000000       0x32 CMakeFiles/fm_example.dir/pico-ss-oled/ss_oled.cpp.obj
 .text          0x00000000        0x0 CMakeFiles/fm_example.dir/home/pi/pico/pico-sdk/src/rp2_common/hardware_adc/adc.c.obj
 .data          0x00000000        0x0 CMakeFiles/fm_example.dir/home/pi/pico/pico-sdk/src/rp2_common/hardware_adc/adc.c.obj
 .bss           0x00000000        0x0 CMakeFiles/fm_example.dir/home/pi/pico/pico-sdk/src/rp2_common/hardware_adc/adc.c.obj
 .text          0x00000000        0x0 /tmp/ccmls62r.o
 .data          0x00000000        0x0 /tmp/ccmls62r.o
 .bss           0x00000000        0x0 /tmp/ccmls62r.o
 .data          0x00000000        0x0 /usr/lib/gcc/arm-none-eabi/7.3.1/thumb/v6-m/libgcc.a(_dvmd_tls.o)
 .bss           0x00000000        0x0 /usr/lib/gcc/arm-none-eabi/7.3.1/thumb/v6-m/libgcc.a(_dvmd_tls.o)
 .text          0x00000000       0x10 /usr/lib/gcc/arm-none-eabi/7.3.1/../../../arm-none-eabi/lib/thumb/v6-m/libg.a(lib_a-atexit.o)
 .data          0x00000000        0x0 /usr/lib/gcc/arm-none-eabi/7.3.1/../../../arm-none-eabi/lib/thumb/v6-m/libg.a(lib_a-atexit.o)
 .bss           0x00000000        0x0 /usr/lib/gcc/arm-none-eabi/7.3.1/../../../arm-none-eabi/lib/thumb/v6-m/libg.a(lib_a-atexit.o)
 .debug_info    0x00000000      0x90c /usr/lib/gcc/arm-none-eabi/7.3.1/../../../arm-none-eabi/lib/thumb/v6-m/libg.a(lib_a-atexit.o)
 .debug_abbrev  0x00000000      0x1fe /usr/lib/gcc/arm-none-eabi/7.3.1/../../../arm-none-eabi/lib/thumb/v6-m/libg.a(lib_a-atexit.o)
 .debug_loc     0x00000000       0x2c /usr/lib/gcc/arm-none-eabi/7.3.1/../../../arm-none-eabi/lib/thumb/v6-m/libg.a(lib_a-atexit.o)
 .debug_aranges
                0x00000000       0x20 /usr/lib/gcc/arm-none-eabi/7.3.1/../../../arm-none-eabi/lib/thumb/v6-m/libg.a(lib_a-atexit.o)
 .debug_line    0x00000000      0x129 /usr/lib/gcc/arm-none-eabi/7.3.1/../../../arm-none-eabi/lib/thumb/v6-m/libg.a(lib_a-atexit.o)
 .debug_str     0x00000000      0x5cf /usr/lib/gcc/arm-none-eabi/7.3.1/../../../arm-none-eabi/lib/thumb/v6-m/libg.a(lib_a-atexit.o)
 .comment       0x00000000       0x58 /usr/lib/gcc/arm-none-eabi/7.3.1/../../../arm-none-eabi/lib/thumb/v6-m/libg.a(lib_a-atexit.o)
 .debug_frame   0x00000000       0x28 /usr/lib/gcc/arm-none-eabi/7.3.1/../../../arm-none-eabi/lib/thumb/v6-m/libg.a(lib_a-atexit.o)
 .ARM.attributes
                0x00000000       0x2c /usr/lib/gcc/arm-none-eabi/7.3.1/../../../arm-none-eabi/lib/thumb/v6-m/libg.a(lib_a-atexit.o)
 .text          0x00000000       0x18 /usr/lib/gcc/arm-none-eabi/7.3.1/../../../arm-none-eabi/lib/thumb/v6-m/libg.a(lib_a-calloc.o)
 .data          0x00000000        0x0 /usr/lib/gcc/arm-none-eabi/7.3.1/../../../arm-none-eabi/lib/thumb/v6-m/libg.a(lib_a-calloc.o)
 .bss           0x00000000        0x0 /usr/lib/gcc/arm-none-eabi/7.3.1/../../../arm-none-eabi/lib/thumb/v6-m/libg.a(lib_a-calloc.o)
 .debug_info    0x00000000      0x8fa /usr/lib/gcc/arm-none-eabi/7.3.1/../../../arm-none-eabi/lib/thumb/v6-m/libg.a(lib_a-calloc.o)
 .debug_abbrev  0x00000000      0x1f1 /usr/lib/gcc/arm-none-eabi/7.3.1/../../../arm-none-eabi/lib/thumb/v6-m/libg.a(lib_a-calloc.o)
 .debug_loc     0x00000000       0x58 /usr/lib/gcc/arm-none-eabi/7.3.1/../../../arm-none-eabi/lib/thumb/v6-m/libg.a(lib_a-calloc.o)
 .debug_aranges
                0x00000000       0x20 /usr/lib/gcc/arm-none-eabi/7.3.1/../../../arm-none-eabi/lib/thumb/v6-m/libg.a(lib_a-calloc.o)
 .debug_line    0x00000000      0x11e /usr/lib/gcc/arm-none-eabi/7.3.1/../../../arm-none-eabi/lib/thumb/v6-m/libg.a(lib_a-calloc.o)
 .debug_str     0x00000000      0x5a1 /usr/lib/gcc/arm-none-eabi/7.3.1/../../../arm-none-eabi/lib/thumb/v6-m/libg.a(lib_a-calloc.o)
 .comment       0x00000000       0x58 /usr/lib/gcc/arm-none-eabi/7.3.1/../../../arm-none-eabi/lib/thumb/v6-m/libg.a(lib_a-calloc.o)
 .debug_frame   0x00000000       0x28 /usr/lib/gcc/arm-none-eabi/7.3.1/../../../arm-none-eabi/lib/thumb/v6-m/libg.a(lib_a-calloc.o)
 .ARM.attributes
                0x00000000       0x2c /usr/lib/gcc/arm-none-eabi/7.3.1/../../../arm-none-eabi/lib/thumb/v6-m/libg.a(lib_a-calloc.o)
 .text          0x00000000       0x58 /usr/lib/gcc/arm-none-eabi/7.3.1/../../../arm-none-eabi/lib/thumb/v6-m/libg.a(lib_a-callocr.o)
 .data          0x00000000        0x0 /usr/lib/gcc/arm-none-eabi/7.3.1/../../../arm-none-eabi/lib/thumb/v6-m/libg.a(lib_a-callocr.o)
 .bss           0x00000000        0x0 /usr/lib/gcc/arm-none-eabi/7.3.1/../../../arm-none-eabi/lib/thumb/v6-m/libg.a(lib_a-callocr.o)
 .debug_info    0x00000000      0xb5d /usr/lib/gcc/arm-none-eabi/7.3.1/../../../arm-none-eabi/lib/thumb/v6-m/libg.a(lib_a-callocr.o)
 .debug_abbrev  0x00000000      0x235 /usr/lib/gcc/arm-none-eabi/7.3.1/../../../arm-none-eabi/lib/thumb/v6-m/libg.a(lib_a-callocr.o)
 .debug_loc     0x00000000      0x226 /usr/lib/gcc/arm-none-eabi/7.3.1/../../../arm-none-eabi/lib/thumb/v6-m/libg.a(lib_a-callocr.o)
 .debug_aranges
                0x00000000       0x20 /usr/lib/gcc/arm-none-eabi/7.3.1/../../../arm-none-eabi/lib/thumb/v6-m/libg.a(lib_a-callocr.o)
 .debug_ranges  0x00000000       0x30 /usr/lib/gcc/arm-none-eabi/7.3.1/../../../arm-none-eabi/lib/thumb/v6-m/libg.a(lib_a-callocr.o)
 .debug_line    0x00000000      0x12b /usr/lib/gcc/arm-none-eabi/7.3.1/../../../arm-none-eabi/lib/thumb/v6-m/libg.a(lib_a-callocr.o)
 .debug_str     0x00000000      0x710 /usr/lib/gcc/arm-none-eabi/7.3.1/../../../arm-none-eabi/lib/thumb/v6-m/libg.a(lib_a-callocr.o)
 .comment       0x00000000       0x58 /usr/lib/gcc/arm-none-eabi/7.3.1/../../../arm-none-eabi/lib/thumb/v6-m/libg.a(lib_a-callocr.o)
 .debug_frame   0x00000000       0x28 /usr/lib/gcc/arm-none-eabi/7.3.1/../../../arm-none-eabi/lib/thumb/v6-m/libg.a(lib_a-callocr.o)
 .ARM.attributes
                0x00000000       0x2c /usr/lib/gcc/arm-none-eabi/7.3.1/../../../arm-none-eabi/lib/thumb/v6-m/libg.a(lib_a-callocr.o)
 .text          0x00000000        0x0 /usr/lib/gcc/arm-none-eabi/7.3.1/../../../arm-none-eabi/lib/thumb/v6-m/libg.a(lib_a-ctype_.o)
 .data          0x00000000        0x0 /usr/lib/gcc/arm-none-eabi/7.3.1/../../../arm-none-eabi/lib/thumb/v6-m/libg.a(lib_a-ctype_.o)
 .bss           0x00000000        0x0 /usr/lib/gcc/arm-none-eabi/7.3.1/../../../arm-none-eabi/lib/thumb/v6-m/libg.a(lib_a-ctype_.o)
 .rodata        0x00000000      0x101 /usr/lib/gcc/arm-none-eabi/7.3.1/../../../arm-none-eabi/lib/thumb/v6-m/libg.a(lib_a-ctype_.o)
 .debug_info    0x00000000      0xdb6 /usr/lib/gcc/arm-none-eabi/7.3.1/../../../arm-none-eabi/lib/thumb/v6-m/libg.a(lib_a-ctype_.o)
 .debug_abbrev  0x00000000      0x190 /usr/lib/gcc/arm-none-eabi/7.3.1/../../../arm-none-eabi/lib/thumb/v6-m/libg.a(lib_a-ctype_.o)
 .debug_aranges
                0x00000000       0x18 /usr/lib/gcc/arm-none-eabi/7.3.1/../../../arm-none-eabi/lib/thumb/v6-m/libg.a(lib_a-ctype_.o)
 .debug_line    0x00000000      0x139 /usr/lib/gcc/arm-none-eabi/7.3.1/../../../arm-none-eabi/lib/thumb/v6-m/libg.a(lib_a-ctype_.o)
 .debug_str     0x00000000      0x89c /usr/lib/gcc/arm-none-eabi/7.3.1/../../../arm-none-eabi/lib/thumb/v6-m/libg.a(lib_a-ctype_.o)
 .comment       0x00000000       0x58 /usr/lib/gcc/arm-none-eabi/7.3.1/../../../arm-none-eabi/lib/thumb/v6-m/libg.a(lib_a-ctype_.o)
 .ARM.attributes
                0x00000000       0x2c /usr/lib/gcc/arm-none-eabi/7.3.1/../../../arm-none-eabi/lib/thumb/v6-m/libg.a(lib_a-ctype_.o)
 .text          0x00000000       0x34 /usr/lib/gcc/arm-none-eabi/7.3.1/../../../arm-none-eabi/lib/thumb/v6-m/libg.a(lib_a-fini.o)
 .data          0x00000000        0x0 /usr/lib/gcc/arm-none-eabi/7.3.1/../../../arm-none-eabi/lib/thumb/v6-m/libg.a(lib_a-fini.o)
 .bss           0x00000000        0x0 /usr/lib/gcc/arm-none-eabi/7.3.1/../../../arm-none-eabi/lib/thumb/v6-m/libg.a(lib_a-fini.o)
 .debug_info    0x00000000       0xf3 /usr/lib/gcc/arm-none-eabi/7.3.1/../../../arm-none-eabi/lib/thumb/v6-m/libg.a(lib_a-fini.o)
 .debug_abbrev  0x00000000       0xba /usr/lib/gcc/arm-none-eabi/7.3.1/../../../arm-none-eabi/lib/thumb/v6-m/libg.a(lib_a-fini.o)
 .debug_loc     0x00000000       0x3e /usr/lib/gcc/arm-none-eabi/7.3.1/../../../arm-none-eabi/lib/thumb/v6-m/libg.a(lib_a-fini.o)
 .debug_aranges
                0x00000000       0x20 /usr/lib/gcc/arm-none-eabi/7.3.1/../../../arm-none-eabi/lib/thumb/v6-m/libg.a(lib_a-fini.o)
 .debug_line    0x00000000       0x9f /usr/lib/gcc/arm-none-eabi/7.3.1/../../../arm-none-eabi/lib/thumb/v6-m/libg.a(lib_a-fini.o)
 .debug_str     0x00000000      0x1de /usr/lib/gcc/arm-none-eabi/7.3.1/../../../arm-none-eabi/lib/thumb/v6-m/libg.a(lib_a-fini.o)
 .comment       0x00000000       0x58 /usr/lib/gcc/arm-none-eabi/7.3.1/../../../arm-none-eabi/lib/thumb/v6-m/libg.a(lib_a-fini.o)
 .debug_frame   0x00000000       0x2c /usr/lib/gcc/arm-none-eabi/7.3.1/../../../arm-none-eabi/lib/thumb/v6-m/libg.a(lib_a-fini.o)
 .ARM.attributes
                0x00000000       0x2c /usr/lib/gcc/arm-none-eabi/7.3.1/../../../arm-none-eabi/lib/thumb/v6-m/libg.a(lib_a-fini.o)
 .text          0x00000000        0x0 /usr/lib/gcc/arm-none-eabi/7.3.1/../../../arm-none-eabi/lib/thumb/v6-m/libg.a(lib_a-impure.o)
 .data          0x00000000      0x430 /usr/lib/gcc/arm-none-eabi/7.3.1/../../../arm-none-eabi/lib/thumb/v6-m/libg.a(lib_a-impure.o)
 .bss           0x00000000        0x0 /usr/lib/gcc/arm-none-eabi/7.3.1/../../../arm-none-eabi/lib/thumb/v6-m/libg.a(lib_a-impure.o)
 .rodata        0x00000000        0x4 /usr/lib/gcc/arm-none-eabi/7.3.1/../../../arm-none-eabi/lib/thumb/v6-m/libg.a(lib_a-impure.o)
 .debug_info    0x00000000      0x8a9 /usr/lib/gcc/arm-none-eabi/7.3.1/../../../arm-none-eabi/lib/thumb/v6-m/libg.a(lib_a-impure.o)
 .debug_abbrev  0x00000000      0x192 /usr/lib/gcc/arm-none-eabi/7.3.1/../../../arm-none-eabi/lib/thumb/v6-m/libg.a(lib_a-impure.o)
 .debug_aranges
                0x00000000       0x18 /usr/lib/gcc/arm-none-eabi/7.3.1/../../../arm-none-eabi/lib/thumb/v6-m/libg.a(lib_a-impure.o)
 .debug_line    0x00000000       0xd4 /usr/lib/gcc/arm-none-eabi/7.3.1/../../../arm-none-eabi/lib/thumb/v6-m/libg.a(lib_a-impure.o)
 .debug_str     0x00000000      0x584 /usr/lib/gcc/arm-none-eabi/7.3.1/../../../arm-none-eabi/lib/thumb/v6-m/libg.a(lib_a-impure.o)
 .comment       0x00000000       0x58 /usr/lib/gcc/arm-none-eabi/7.3.1/../../../arm-none-eabi/lib/thumb/v6-m/libg.a(lib_a-impure.o)
 .ARM.attributes
                0x00000000       0x2c /usr/lib/gcc/arm-none-eabi/7.3.1/../../../arm-none-eabi/lib/thumb/v6-m/libg.a(lib_a-impure.o)
 .text          0x00000000       0x48 /usr/lib/gcc/arm-none-eabi/7.3.1/../../../arm-none-eabi/lib/thumb/v6-m/libg.a(lib_a-init.o)
 .data          0x00000000        0x0 /usr/lib/gcc/arm-none-eabi/7.3.1/../../../arm-none-eabi/lib/thumb/v6-m/libg.a(lib_a-init.o)
 .bss           0x00000000        0x0 /usr/lib/gcc/arm-none-eabi/7.3.1/../../../arm-none-eabi/lib/thumb/v6-m/libg.a(lib_a-init.o)
 .debug_info    0x00000000      0x109 /usr/lib/gcc/arm-none-eabi/7.3.1/../../../arm-none-eabi/lib/thumb/v6-m/libg.a(lib_a-init.o)
 .debug_abbrev  0x00000000       0xba /usr/lib/gcc/arm-none-eabi/7.3.1/../../../arm-none-eabi/lib/thumb/v6-m/libg.a(lib_a-init.o)
 .debug_loc     0x00000000       0x84 /usr/lib/gcc/arm-none-eabi/7.3.1/../../../arm-none-eabi/lib/thumb/v6-m/libg.a(lib_a-init.o)
 .debug_aranges
                0x00000000       0x20 /usr/lib/gcc/arm-none-eabi/7.3.1/../../../arm-none-eabi/lib/thumb/v6-m/libg.a(lib_a-init.o)
 .debug_line    0x00000000       0xbf /usr/lib/gcc/arm-none-eabi/7.3.1/../../../arm-none-eabi/lib/thumb/v6-m/libg.a(lib_a-init.o)
 .debug_str     0x00000000      0x208 /usr/lib/gcc/arm-none-eabi/7.3.1/../../../arm-none-eabi/lib/thumb/v6-m/libg.a(lib_a-init.o)
 .comment       0x00000000       0x58 /usr/lib/gcc/arm-none-eabi/7.3.1/../../../arm-none-eabi/lib/thumb/v6-m/libg.a(lib_a-init.o)
 .debug_frame   0x00000000       0x2c /usr/lib/gcc/arm-none-eabi/7.3.1/../../../arm-none-eabi/lib/thumb/v6-m/libg.a(lib_a-init.o)
 .ARM.attributes
                0x00000000       0x2c /usr/lib/gcc/arm-none-eabi/7.3.1/../../../arm-none-eabi/lib/thumb/v6-m/libg.a(lib_a-init.o)
 .text          0x00000000       0x28 /usr/lib/gcc/arm-none-eabi/7.3.1/../../../arm-none-eabi/lib/thumb/v6-m/libg.a(lib_a-malloc.o)
 .data          0x00000000        0x0 /usr/lib/gcc/arm-none-eabi/7.3.1/../../../arm-none-eabi/lib/thumb/v6-m/libg.a(lib_a-malloc.o)
 .bss           0x00000000        0x0 /usr/lib/gcc/arm-none-eabi/7.3.1/../../../arm-none-eabi/lib/thumb/v6-m/libg.a(lib_a-malloc.o)
 .debug_info    0x00000000      0x926 /usr/lib/gcc/arm-none-eabi/7.3.1/../../../arm-none-eabi/lib/thumb/v6-m/libg.a(lib_a-malloc.o)
 .debug_abbrev  0x00000000      0x1fc /usr/lib/gcc/arm-none-eabi/7.3.1/../../../arm-none-eabi/lib/thumb/v6-m/libg.a(lib_a-malloc.o)
 .debug_loc     0x00000000       0x58 /usr/lib/gcc/arm-none-eabi/7.3.1/../../../arm-none-eabi/lib/thumb/v6-m/libg.a(lib_a-malloc.o)
 .debug_aranges
                0x00000000       0x20 /usr/lib/gcc/arm-none-eabi/7.3.1/../../../arm-none-eabi/lib/thumb/v6-m/libg.a(lib_a-malloc.o)
 .debug_line    0x00000000      0x130 /usr/lib/gcc/arm-none-eabi/7.3.1/../../../arm-none-eabi/lib/thumb/v6-m/libg.a(lib_a-malloc.o)
 .debug_str     0x00000000      0x5b5 /usr/lib/gcc/arm-none-eabi/7.3.1/../../../arm-none-eabi/lib/thumb/v6-m/libg.a(lib_a-malloc.o)
 .comment       0x00000000       0x58 /usr/lib/gcc/arm-none-eabi/7.3.1/../../../arm-none-eabi/lib/thumb/v6-m/libg.a(lib_a-malloc.o)
 .debug_frame   0x00000000       0x40 /usr/lib/gcc/arm-none-eabi/7.3.1/../../../arm-none-eabi/lib/thumb/v6-m/libg.a(lib_a-malloc.o)
 .ARM.attributes
                0x00000000       0x2c /usr/lib/gcc/arm-none-eabi/7.3.1/../../../arm-none-eabi/lib/thumb/v6-m/libg.a(lib_a-malloc.o)
 .text          0x00000000      0x570 /usr/lib/gcc/arm-none-eabi/7.3.1/../../../arm-none-eabi/lib/thumb/v6-m/libg.a(lib_a-mallocr.o)
 .data          0x00000000      0x410 /usr/lib/gcc/arm-none-eabi/7.3.1/../../../arm-none-eabi/lib/thumb/v6-m/libg.a(lib_a-mallocr.o)
 .bss           0x00000000       0x34 /usr/lib/gcc/arm-none-eabi/7.3.1/../../../arm-none-eabi/lib/thumb/v6-m/libg.a(lib_a-mallocr.o)
 .debug_info    0x00000000      0xde7 /usr/lib/gcc/arm-none-eabi/7.3.1/../../../arm-none-eabi/lib/thumb/v6-m/libg.a(lib_a-mallocr.o)
 .debug_abbrev  0x00000000      0x2cd /usr/lib/gcc/arm-none-eabi/7.3.1/../../../arm-none-eabi/lib/thumb/v6-m/libg.a(lib_a-mallocr.o)
 .debug_loc     0x00000000      0xdce /usr/lib/gcc/arm-none-eabi/7.3.1/../../../arm-none-eabi/lib/thumb/v6-m/libg.a(lib_a-mallocr.o)
 .debug_aranges
                0x00000000       0x20 /usr/lib/gcc/arm-none-eabi/7.3.1/../../../arm-none-eabi/lib/thumb/v6-m/libg.a(lib_a-mallocr.o)
 .debug_ranges  0x00000000       0x40 /usr/lib/gcc/arm-none-eabi/7.3.1/../../../arm-none-eabi/lib/thumb/v6-m/libg.a(lib_a-mallocr.o)
 .debug_line    0x00000000      0x36d /usr/lib/gcc/arm-none-eabi/7.3.1/../../../arm-none-eabi/lib/thumb/v6-m/libg.a(lib_a-mallocr.o)
 .debug_str     0x00000000      0x7ec /usr/lib/gcc/arm-none-eabi/7.3.1/../../../arm-none-eabi/lib/thumb/v6-m/libg.a(lib_a-mallocr.o)
 .comment       0x00000000       0x58 /usr/lib/gcc/arm-none-eabi/7.3.1/../../../arm-none-eabi/lib/thumb/v6-m/libg.a(lib_a-mallocr.o)
 .debug_frame   0x00000000       0x3c /usr/lib/gcc/arm-none-eabi/7.3.1/../../../arm-none-eabi/lib/thumb/v6-m/libg.a(lib_a-mallocr.o)
 .ARM.attributes
                0x00000000       0x2c /usr/lib/gcc/arm-none-eabi/7.3.1/../../../arm-none-eabi/lib/thumb/v6-m/libg.a(lib_a-mallocr.o)
 .text          0x00000000       0x4c /usr/lib/gcc/arm-none-eabi/7.3.1/../../../arm-none-eabi/lib/thumb/v6-m/libg.a(lib_a-memcmp.o)
 .data          0x00000000        0x0 /usr/lib/gcc/arm-none-eabi/7.3.1/../../../arm-none-eabi/lib/thumb/v6-m/libg.a(lib_a-memcmp.o)
 .bss           0x00000000        0x0 /usr/lib/gcc/arm-none-eabi/7.3.1/../../../arm-none-eabi/lib/thumb/v6-m/libg.a(lib_a-memcmp.o)
 .debug_info    0x00000000      0x91d /usr/lib/gcc/arm-none-eabi/7.3.1/../../../arm-none-eabi/lib/thumb/v6-m/libg.a(lib_a-memcmp.o)
 .debug_abbrev  0x00000000      0x1bd /usr/lib/gcc/arm-none-eabi/7.3.1/../../../arm-none-eabi/lib/thumb/v6-m/libg.a(lib_a-memcmp.o)
 .debug_loc     0x00000000      0x199 /usr/lib/gcc/arm-none-eabi/7.3.1/../../../arm-none-eabi/lib/thumb/v6-m/libg.a(lib_a-memcmp.o)
 .debug_aranges
                0x00000000       0x20 /usr/lib/gcc/arm-none-eabi/7.3.1/../../../arm-none-eabi/lib/thumb/v6-m/libg.a(lib_a-memcmp.o)
 .debug_line    0x00000000      0x135 /usr/lib/gcc/arm-none-eabi/7.3.1/../../../arm-none-eabi/lib/thumb/v6-m/libg.a(lib_a-memcmp.o)
 .debug_str     0x00000000      0x588 /usr/lib/gcc/arm-none-eabi/7.3.1/../../../arm-none-eabi/lib/thumb/v6-m/libg.a(lib_a-memcmp.o)
 .comment       0x00000000       0x58 /usr/lib/gcc/arm-none-eabi/7.3.1/../../../arm-none-eabi/lib/thumb/v6-m/libg.a(lib_a-memcmp.o)
 .debug_frame   0x00000000       0x2c /usr/lib/gcc/arm-none-eabi/7.3.1/../../../arm-none-eabi/lib/thumb/v6-m/libg.a(lib_a-memcmp.o)
 .ARM.attributes
                0x00000000       0x2c /usr/lib/gcc/arm-none-eabi/7.3.1/../../../arm-none-eabi/lib/thumb/v6-m/libg.a(lib_a-memcmp.o)
 .text          0x00000000        0x8 /usr/lib/gcc/arm-none-eabi/7.3.1/../../../arm-none-eabi/lib/thumb/v6-m/libg.a(lib_a-mlock.o)
 .data          0x00000000        0x0 /usr/lib/gcc/arm-none-eabi/7.3.1/../../../arm-none-eabi/lib/thumb/v6-m/libg.a(lib_a-mlock.o)
 .bss           0x00000000        0x0 /usr/lib/gcc/arm-none-eabi/7.3.1/../../../arm-none-eabi/lib/thumb/v6-m/libg.a(lib_a-mlock.o)
 .debug_info    0x00000000      0x8dc /usr/lib/gcc/arm-none-eabi/7.3.1/../../../arm-none-eabi/lib/thumb/v6-m/libg.a(lib_a-mlock.o)
 .debug_abbrev  0x00000000      0x1d7 /usr/lib/gcc/arm-none-eabi/7.3.1/../../../arm-none-eabi/lib/thumb/v6-m/libg.a(lib_a-mlock.o)
 .debug_aranges
                0x00000000       0x20 /usr/lib/gcc/arm-none-eabi/7.3.1/../../../arm-none-eabi/lib/thumb/v6-m/libg.a(lib_a-mlock.o)
 .debug_line    0x00000000      0x11a /usr/lib/gcc/arm-none-eabi/7.3.1/../../../arm-none-eabi/lib/thumb/v6-m/libg.a(lib_a-mlock.o)
 .debug_str     0x00000000      0x5b0 /usr/lib/gcc/arm-none-eabi/7.3.1/../../../arm-none-eabi/lib/thumb/v6-m/libg.a(lib_a-mlock.o)
 .comment       0x00000000       0x58 /usr/lib/gcc/arm-none-eabi/7.3.1/../../../arm-none-eabi/lib/thumb/v6-m/libg.a(lib_a-mlock.o)
 .debug_frame   0x00000000       0x30 /usr/lib/gcc/arm-none-eabi/7.3.1/../../../arm-none-eabi/lib/thumb/v6-m/libg.a(lib_a-mlock.o)
 .ARM.attributes
                0x00000000       0x2c /usr/lib/gcc/arm-none-eabi/7.3.1/../../../arm-none-eabi/lib/thumb/v6-m/libg.a(lib_a-mlock.o)
 .text          0x00000000       0x24 /usr/lib/gcc/arm-none-eabi/7.3.1/../../../arm-none-eabi/lib/thumb/v6-m/libg.a(lib_a-sbrkr.o)
 .data          0x00000000        0x0 /usr/lib/gcc/arm-none-eabi/7.3.1/../../../arm-none-eabi/lib/thumb/v6-m/libg.a(lib_a-sbrkr.o)
 .bss           0x00000000        0x0 /usr/lib/gcc/arm-none-eabi/7.3.1/../../../arm-none-eabi/lib/thumb/v6-m/libg.a(lib_a-sbrkr.o)
 .debug_info    0x00000000      0x95f /usr/lib/gcc/arm-none-eabi/7.3.1/../../../arm-none-eabi/lib/thumb/v6-m/libg.a(lib_a-sbrkr.o)
 .debug_abbrev  0x00000000      0x215 /usr/lib/gcc/arm-none-eabi/7.3.1/../../../arm-none-eabi/lib/thumb/v6-m/libg.a(lib_a-sbrkr.o)
 .debug_loc     0x00000000       0x58 /usr/lib/gcc/arm-none-eabi/7.3.1/../../../arm-none-eabi/lib/thumb/v6-m/libg.a(lib_a-sbrkr.o)
 .debug_aranges
                0x00000000       0x20 /usr/lib/gcc/arm-none-eabi/7.3.1/../../../arm-none-eabi/lib/thumb/v6-m/libg.a(lib_a-sbrkr.o)
 .debug_line    0x00000000      0x132 /usr/lib/gcc/arm-none-eabi/7.3.1/../../../arm-none-eabi/lib/thumb/v6-m/libg.a(lib_a-sbrkr.o)
 .debug_str     0x00000000      0x5c7 /usr/lib/gcc/arm-none-eabi/7.3.1/../../../arm-none-eabi/lib/thumb/v6-m/libg.a(lib_a-sbrkr.o)
 .comment       0x00000000       0x58 /usr/lib/gcc/arm-none-eabi/7.3.1/../../../arm-none-eabi/lib/thumb/v6-m/libg.a(lib_a-sbrkr.o)
 .debug_frame   0x00000000       0x2c /usr/lib/gcc/arm-none-eabi/7.3.1/../../../arm-none-eabi/lib/thumb/v6-m/libg.a(lib_a-sbrkr.o)
 .ARM.attributes
                0x00000000       0x2c /usr/lib/gcc/arm-none-eabi/7.3.1/../../../arm-none-eabi/lib/thumb/v6-m/libg.a(lib_a-sbrkr.o)
 .data          0x00000000        0x0 /usr/lib/gcc/arm-none-eabi/7.3.1/../../../arm-none-eabi/lib/thumb/v6-m/libg.a(lib_a-strlen-stub.o)
 .bss           0x00000000        0x0 /usr/lib/gcc/arm-none-eabi/7.3.1/../../../arm-none-eabi/lib/thumb/v6-m/libg.a(lib_a-strlen-stub.o)
 .text          0x00000000       0x88 /usr/lib/gcc/arm-none-eabi/7.3.1/../../../arm-none-eabi/lib/thumb/v6-m/libg.a(lib_a-__atexit.o)
 .data          0x00000000        0x0 /usr/lib/gcc/arm-none-eabi/7.3.1/../../../arm-none-eabi/lib/thumb/v6-m/libg.a(lib_a-__atexit.o)
 .bss           0x00000000        0x0 /usr/lib/gcc/arm-none-eabi/7.3.1/../../../arm-none-eabi/lib/thumb/v6-m/libg.a(lib_a-__atexit.o)
 .debug_info    0x00000000      0x937 /usr/lib/gcc/arm-none-eabi/7.3.1/../../../arm-none-eabi/lib/thumb/v6-m/libg.a(lib_a-__atexit.o)
 .debug_abbrev  0x00000000      0x212 /usr/lib/gcc/arm-none-eabi/7.3.1/../../../arm-none-eabi/lib/thumb/v6-m/libg.a(lib_a-__atexit.o)
 .debug_loc     0x00000000      0x138 /usr/lib/gcc/arm-none-eabi/7.3.1/../../../arm-none-eabi/lib/thumb/v6-m/libg.a(lib_a-__atexit.o)
 .debug_aranges
                0x00000000       0x20 /usr/lib/gcc/arm-none-eabi/7.3.1/../../../arm-none-eabi/lib/thumb/v6-m/libg.a(lib_a-__atexit.o)
 .debug_line    0x00000000      0x148 /usr/lib/gcc/arm-none-eabi/7.3.1/../../../arm-none-eabi/lib/thumb/v6-m/libg.a(lib_a-__atexit.o)
 .debug_str     0x00000000      0x5ed /usr/lib/gcc/arm-none-eabi/7.3.1/../../../arm-none-eabi/lib/thumb/v6-m/libg.a(lib_a-__atexit.o)
 .comment       0x00000000       0x58 /usr/lib/gcc/arm-none-eabi/7.3.1/../../../arm-none-eabi/lib/thumb/v6-m/libg.a(lib_a-__atexit.o)
 .debug_frame   0x00000000       0x38 /usr/lib/gcc/arm-none-eabi/7.3.1/../../../arm-none-eabi/lib/thumb/v6-m/libg.a(lib_a-__atexit.o)
 .ARM.attributes
                0x00000000       0x2c /usr/lib/gcc/arm-none-eabi/7.3.1/../../../arm-none-eabi/lib/thumb/v6-m/libg.a(lib_a-__atexit.o)
 .text          0x00000000      0x274 /usr/lib/gcc/arm-none-eabi/7.3.1/../../../arm-none-eabi/lib/thumb/v6-m/libg.a(lib_a-freer.o)
 .data          0x00000000        0x0 /usr/lib/gcc/arm-none-eabi/7.3.1/../../../arm-none-eabi/lib/thumb/v6-m/libg.a(lib_a-freer.o)
 .bss           0x00000000        0x0 /usr/lib/gcc/arm-none-eabi/7.3.1/../../../arm-none-eabi/lib/thumb/v6-m/libg.a(lib_a-freer.o)
 .debug_info    0x00000000      0xc97 /usr/lib/gcc/arm-none-eabi/7.3.1/../../../arm-none-eabi/lib/thumb/v6-m/libg.a(lib_a-freer.o)
 .debug_abbrev  0x00000000      0x273 /usr/lib/gcc/arm-none-eabi/7.3.1/../../../arm-none-eabi/lib/thumb/v6-m/libg.a(lib_a-freer.o)
 .debug_loc     0x00000000      0x46c /usr/lib/gcc/arm-none-eabi/7.3.1/../../../arm-none-eabi/lib/thumb/v6-m/libg.a(lib_a-freer.o)
 .debug_aranges
                0x00000000       0x20 /usr/lib/gcc/arm-none-eabi/7.3.1/../../../arm-none-eabi/lib/thumb/v6-m/libg.a(lib_a-freer.o)
 .debug_line    0x00000000      0x200 /usr/lib/gcc/arm-none-eabi/7.3.1/../../../arm-none-eabi/lib/thumb/v6-m/libg.a(lib_a-freer.o)
 .debug_str     0x00000000      0x765 /usr/lib/gcc/arm-none-eabi/7.3.1/../../../arm-none-eabi/lib/thumb/v6-m/libg.a(lib_a-freer.o)
 .comment       0x00000000       0x58 /usr/lib/gcc/arm-none-eabi/7.3.1/../../../arm-none-eabi/lib/thumb/v6-m/libg.a(lib_a-freer.o)
 .debug_frame   0x00000000       0x58 /usr/lib/gcc/arm-none-eabi/7.3.1/../../../arm-none-eabi/lib/thumb/v6-m/libg.a(lib_a-freer.o)
 .ARM.attributes
                0x00000000       0x2c /usr/lib/gcc/arm-none-eabi/7.3.1/../../../arm-none-eabi/lib/thumb/v6-m/libg.a(lib_a-freer.o)
 .text          0x00000000       0xb0 /usr/lib/gcc/arm-none-eabi/7.3.1/../../../arm-none-eabi/lib/thumb/v6-m/libg.a(lib_a-reent.o)
 .data          0x00000000        0x0 /usr/lib/gcc/arm-none-eabi/7.3.1/../../../arm-none-eabi/lib/thumb/v6-m/libg.a(lib_a-reent.o)
 .bss           0x00000000        0x0 /usr/lib/gcc/arm-none-eabi/7.3.1/../../../arm-none-eabi/lib/thumb/v6-m/libg.a(lib_a-reent.o)
 .debug_info    0x00000000      0xa12 /usr/lib/gcc/arm-none-eabi/7.3.1/../../../arm-none-eabi/lib/thumb/v6-m/libg.a(lib_a-reent.o)
 .debug_abbrev  0x00000000      0x273 /usr/lib/gcc/arm-none-eabi/7.3.1/../../../arm-none-eabi/lib/thumb/v6-m/libg.a(lib_a-reent.o)
 .debug_loc     0x00000000      0x112 /usr/lib/gcc/arm-none-eabi/7.3.1/../../../arm-none-eabi/lib/thumb/v6-m/libg.a(lib_a-reent.o)
 .debug_aranges
                0x00000000       0x20 /usr/lib/gcc/arm-none-eabi/7.3.1/../../../arm-none-eabi/lib/thumb/v6-m/libg.a(lib_a-reent.o)
 .debug_line    0x00000000      0x14b /usr/lib/gcc/arm-none-eabi/7.3.1/../../../arm-none-eabi/lib/thumb/v6-m/libg.a(lib_a-reent.o)
 .debug_str     0x00000000      0x5c0 /usr/lib/gcc/arm-none-eabi/7.3.1/../../../arm-none-eabi/lib/thumb/v6-m/libg.a(lib_a-reent.o)
 .comment       0x00000000       0x58 /usr/lib/gcc/arm-none-eabi/7.3.1/../../../arm-none-eabi/lib/thumb/v6-m/libg.a(lib_a-reent.o)
 .debug_frame   0x00000000       0x48 /usr/lib/gcc/arm-none-eabi/7.3.1/../../../arm-none-eabi/lib/thumb/v6-m/libg.a(lib_a-reent.o)
 .ARM.attributes
                0x00000000       0x2c /usr/lib/gcc/arm-none-eabi/7.3.1/../../../arm-none-eabi/lib/thumb/v6-m/libg.a(lib_a-reent.o)
 COMMON         0x00000000        0x4 /usr/lib/gcc/arm-none-eabi/7.3.1/../../../arm-none-eabi/lib/thumb/v6-m/libg.a(lib_a-reent.o)
 .text          0x00000000        0x0 /usr/lib/gcc/arm-none-eabi/7.3.1/thumb/v6-m/crtend.o
 .data          0x00000000        0x0 /usr/lib/gcc/arm-none-eabi/7.3.1/thumb/v6-m/crtend.o
 .bss           0x00000000        0x0 /usr/lib/gcc/arm-none-eabi/7.3.1/thumb/v6-m/crtend.o
 .eh_frame      0x00000000        0x4 /usr/lib/gcc/arm-none-eabi/7.3.1/thumb/v6-m/crtend.o
 .text          0x00000000        0x0 /usr/lib/gcc/arm-none-eabi/7.3.1/thumb/v6-m/crtn.o
 .data          0x00000000        0x0 /usr/lib/gcc/arm-none-eabi/7.3.1/thumb/v6-m/crtn.o
 .bss           0x00000000        0x0 /usr/lib/gcc/arm-none-eabi/7.3.1/thumb/v6-m/crtn.o
 .init          0x00000000        0x8 /usr/lib/gcc/arm-none-eabi/7.3.1/thumb/v6-m/crtn.o
 .fini          0x00000000        0x8 /usr/lib/gcc/arm-none-eabi/7.3.1/thumb/v6-m/crtn.o
 .ARM.attributes
                0x00000000       0x1e /usr/lib/gcc/arm-none-eabi/7.3.1/thumb/v6-m/crtn.o

Memory Configuration

Name             Origin             Length             Attributes
FLASH            0x10000000         0x00200000         xr
RAM              0x20000000         0x00040000         xrw
SCRATCH_X        0x20040000         0x00001000         xrw
SCRATCH_Y        0x20041000         0x00001000         xrw
*default*        0x00000000         0xffffffff

Linker script and memory map

LOAD /usr/lib/gcc/arm-none-eabi/7.3.1/thumb/v6-m/crti.o
LOAD /usr/lib/gcc/arm-none-eabi/7.3.1/thumb/v6-m/crtbegin.o
LOAD /usr/lib/gcc/arm-none-eabi/7.3.1/../../../arm-none-eabi/lib/thumb/v6-m/crt0.o

.flash_begin    0x10000000        0x0
                0x10000000                __flash_binary_start = .

.boot2          0x10000000      0x100
                0x10000000                __boot2_start__ = .
 *(.boot2)
 .boot2         0x10000000      0x100 /tmp/ccmls62r.o
                0x10000100                __boot2_end__ = .
                0x00000001                ASSERT (((__boot2_end__ - __boot2_start__) == 0x100), ERROR: Pico second stage bootloader must be 256 bytes in size)

.text           0x10000100     0x9e18
                0x10000100                __logical_binary_start = .
 *(.vectors)
 .vectors       0x10000100       0xd4 CMakeFiles/fm_example.dir/home/pi/pico/pico-sdk/src/rp2_common/pico_standard_link/crt0.S.obj
                0x10000100                __vectors
                0x10000100                __VECTOR_TABLE
                0x100001c0                isr_invalid
                0x100001c0                __default_isrs_start
                0x100001c2                isr_nmi
                0x100001c4                isr_hardfault
                0x100001c6                isr_svcall
                0x100001c8                isr_pendsv
                0x100001ca                isr_systick
                0x100001cc                isr_irq30
                0x100001cc                __unhandled_user_irq
                0x100001cc                isr_irq13
                0x100001cc                isr_irq27
                0x100001cc                isr_irq31
                0x100001cc                isr_irq5
                0x100001cc                isr_irq11
                0x100001cc                isr_irq23
                0x100001cc                isr_irq18
                0x100001cc                isr_irq28
                0x100001cc                isr_irq19
                0x100001cc                isr_irq0
                0x100001cc                isr_irq6
                0x100001cc                isr_irq22
                0x100001cc                isr_irq17
                0x100001cc                isr_irq14
                0x100001cc                isr_irq2
                0x100001cc                isr_irq10
                0x100001cc                isr_irq8
                0x100001cc                isr_irq24
                0x100001cc                isr_irq1
                0x100001cc                isr_irq7
                0x100001cc                isr_irq21
                0x100001cc                isr_irq20
                0x100001cc                isr_irq15
                0x100001cc                isr_irq25
                0x100001cc                isr_irq4
                0x100001cc                isr_irq16
                0x100001cc                isr_irq29
                0x100001cc                isr_irq26
                0x100001cc                __default_isrs_end
                0x100001cc                isr_irq3
                0x100001cc                isr_irq12
                0x100001cc                isr_irq9
                0x100001d2                unhandled_user_irq_num_in_r0
 *(.binary_info_header)
 .binary_info_header
                0x100001d4       0x14 CMakeFiles/fm_example.dir/home/pi/pico/pico-sdk/src/rp2_common/pico_standard_link/crt0.S.obj
                0x100001e8                __binary_info_header_end = .
 *(.reset)
 .reset         0x100001e8       0xa8 CMakeFiles/fm_example.dir/home/pi/pico/pico-sdk/src/rp2_common/pico_standard_link/crt0.S.obj
                0x100001e8                _entry_point
                0x10000266                __get_current_exception
 .reset         0x10000290       0x30 CMakeFiles/fm_example.dir/home/pi/pico/pico-sdk/src/rp2_common/pico_standard_link/binary_info.c.obj
 *(.init)
 .init          0x100002c0        0x4 /usr/lib/gcc/arm-none-eabi/7.3.1/thumb/v6-m/crti.o
                0x100002c0                _init
 *(EXCLUDE_FILE(*libm.a: *libc.a:*lib_a-mem*.o *libgcc.a:) .text*)
 .text          0x100002c4       0x98 /usr/lib/gcc/arm-none-eabi/7.3.1/thumb/v6-m/crtbegin.o
 .text._Z41__static_initialization_and_destruction_0ii
                0x1000035c       0x3c CMakeFiles/fm_example.dir/fm_example.cpp.obj
 .text._ZL10print_helpv
                0x10000398       0xb0 CMakeFiles/fm_example.dir/fm_example.cpp.obj
 .text.adc_gpio_init
                0x10000448       0x1e CMakeFiles/fm_example.dir/fm_example.cpp.obj
 *fill*         0x10000466        0x2 
 .text._ZL18print_station_infov
                0x10000468       0x40 CMakeFiles/fm_example.dir/fm_example.cpp.obj
 .text._ZL10update_rdsv
                0x100004a8       0x28 CMakeFiles/fm_example.dir/fm_example.cpp.obj
 .text._ZL4seek19fm_seek_direction_t
                0x100004d0      0x110 CMakeFiles/fm_example.dir/fm_example.cpp.obj
 .text._ZL14print_rds_infov
                0x100005e0      0x108 CMakeFiles/fm_example.dir/fm_example.cpp.obj
 .text._ZL13set_frequencyf
                0x100006e8       0x74 CMakeFiles/fm_example.dir/fm_example.cpp.obj
 .text._ZL4loopv
                0x1000075c      0x438 CMakeFiles/fm_example.dir/fm_example.cpp.obj
 .text.main     0x10000b94      0x13c CMakeFiles/fm_example.dir/fm_example.cpp.obj
                0x10000b94                main
 .text._GLOBAL__sub_I_myOled
                0x10000cd0       0x10 CMakeFiles/fm_example.dir/fm_example.cpp.obj
 .text.fm_frequency_range
                0x10000ce0       0x80 CMakeFiles/fm_example.dir/fm_rda5807/fm_rda5807.c.obj
 .text.fm_channel_to_frequency
                0x10000d60       0x1e CMakeFiles/fm_example.dir/fm_rda5807/fm_rda5807.c.obj
 .text.fm_set_channel_spacing_bits
                0x10000d7e       0x3e CMakeFiles/fm_example.dir/fm_rda5807/fm_rda5807.c.obj
 .text.fm_set_band_bits
                0x10000dbc       0x64 CMakeFiles/fm_example.dir/fm_rda5807/fm_rda5807.c.obj
 .text.fm_write_registers
                0x10000e20       0x58 CMakeFiles/fm_example.dir/fm_rda5807/fm_rda5807.c.obj
 .text.fm_write_registers_up_to
                0x10000e78       0x2c CMakeFiles/fm_example.dir/fm_rda5807/fm_rda5807.c.obj
 .text.fm_write_single_register
                0x10000ea4       0x58 CMakeFiles/fm_example.dir/fm_rda5807/fm_rda5807.c.obj
 .text.fm_read_registers
                0x10000efc       0x60 CMakeFiles/fm_example.dir/fm_rda5807/fm_rda5807.c.obj
 .text.fm_read_registers_up_to
                0x10000f5c       0x2c CMakeFiles/fm_example.dir/fm_rda5807/fm_rda5807.c.obj
 .text.fm_read_single_register
                0x10000f88       0x7c CMakeFiles/fm_example.dir/fm_rda5807/fm_rda5807.c.obj
 .text.fm_set_frequency_async_task
                0x10001004       0xd0 CMakeFiles/fm_example.dir/fm_rda5807/fm_rda5807.c.obj
 .text.fm_seek_async_task
                0x100010d4       0xf0 CMakeFiles/fm_example.dir/fm_rda5807/fm_rda5807.c.obj
 .text.fm_frequency_to_channel
                0x100011c4       0x22 CMakeFiles/fm_example.dir/fm_rda5807/fm_rda5807.c.obj
 .text.fm_init  0x100011e6       0x3a CMakeFiles/fm_example.dir/fm_rda5807/fm_rda5807.c.obj
                0x100011e6                fm_init
 .text.fm_is_powered_up
                0x10001220        0x8 CMakeFiles/fm_example.dir/fm_rda5807/fm_rda5807.c.obj
                0x10001220                fm_is_powered_up
 .text.fm_get_frequency_range
                0x10001228        0xc CMakeFiles/fm_example.dir/fm_rda5807/fm_rda5807.c.obj
                0x10001228                fm_get_frequency_range
 .text.fm_get_frequency
                0x10001234        0x4 CMakeFiles/fm_example.dir/fm_rda5807/fm_rda5807.c.obj
                0x10001234                fm_get_frequency
 .text.fm_set_frequency_async
                0x10001238       0xb4 CMakeFiles/fm_example.dir/fm_rda5807/fm_rda5807.c.obj
                0x10001238                fm_set_frequency_async
 .text.fm_get_seek_threshold
                0x100012ec        0x4 CMakeFiles/fm_example.dir/fm_rda5807/fm_rda5807.c.obj
                0x100012ec                fm_get_seek_threshold
 .text.fm_set_seek_threshold
                0x100012f0       0x70 CMakeFiles/fm_example.dir/fm_rda5807/fm_rda5807.c.obj
                0x100012f0                fm_set_seek_threshold
 .text.fm_seek_async
                0x10001360       0x9c CMakeFiles/fm_example.dir/fm_rda5807/fm_rda5807.c.obj
                0x10001360                fm_seek_async
 .text.fm_get_mute
                0x100013fc        0x6 CMakeFiles/fm_example.dir/fm_rda5807/fm_rda5807.c.obj
                0x100013fc                fm_get_mute
 *fill*         0x10001402        0x2 
 .text.fm_set_mute
                0x10001404       0x78 CMakeFiles/fm_example.dir/fm_rda5807/fm_rda5807.c.obj
                0x10001404                fm_set_mute
 .text.fm_get_softmute
                0x1000147c        0x6 CMakeFiles/fm_example.dir/fm_rda5807/fm_rda5807.c.obj
                0x1000147c                fm_get_softmute
 *fill*         0x10001482        0x2 
 .text.fm_set_softmute
                0x10001484       0x78 CMakeFiles/fm_example.dir/fm_rda5807/fm_rda5807.c.obj
                0x10001484                fm_set_softmute
 .text.fm_get_bass_boost
                0x100014fc        0x6 CMakeFiles/fm_example.dir/fm_rda5807/fm_rda5807.c.obj
                0x100014fc                fm_get_bass_boost
 *fill*         0x10001502        0x2 
 .text.fm_set_bass_boost
                0x10001504       0x78 CMakeFiles/fm_example.dir/fm_rda5807/fm_rda5807.c.obj
                0x10001504                fm_set_bass_boost
 .text.fm_get_mono
                0x1000157c        0x6 CMakeFiles/fm_example.dir/fm_rda5807/fm_rda5807.c.obj
                0x1000157c                fm_get_mono
 *fill*         0x10001582        0x2 
 .text.fm_set_mono
                0x10001584       0x78 CMakeFiles/fm_example.dir/fm_rda5807/fm_rda5807.c.obj
                0x10001584                fm_set_mono
 .text.fm_get_volume
                0x100015fc        0x6 CMakeFiles/fm_example.dir/fm_rda5807/fm_rda5807.c.obj
                0x100015fc                fm_get_volume
 *fill*         0x10001602        0x2 
 .text.fm_set_volume
                0x10001604       0x70 CMakeFiles/fm_example.dir/fm_rda5807/fm_rda5807.c.obj
                0x10001604                fm_set_volume
 .text.fm_get_rssi
                0x10001674       0x3c CMakeFiles/fm_example.dir/fm_rda5807/fm_rda5807.c.obj
                0x10001674                fm_get_rssi
 .text.fm_get_stereo_indicator
                0x100016b0       0x40 CMakeFiles/fm_example.dir/fm_rda5807/fm_rda5807.c.obj
                0x100016b0                fm_get_stereo_indicator
 .text.fm_read_rds_group
                0x100016f0       0x50 CMakeFiles/fm_example.dir/fm_rda5807/fm_rda5807.c.obj
                0x100016f0                fm_read_rds_group
 .text.fm_async_task_tick
                0x10001740       0x74 CMakeFiles/fm_example.dir/fm_rda5807/fm_rda5807.c.obj
                0x10001740                fm_async_task_tick
 .text.fm_set_frequency_blocking
                0x100017b4       0x74 CMakeFiles/fm_example.dir/fm_rda5807/fm_rda5807.c.obj
                0x100017b4                fm_set_frequency_blocking
 .text.fm_power_up
                0x10001828      0x230 CMakeFiles/fm_example.dir/fm_rda5807/fm_rda5807.c.obj
                0x10001828                fm_power_up
 .text.fm_async_task_cancel
                0x10001a58       0x40 CMakeFiles/fm_example.dir/fm_rda5807/fm_rda5807.c.obj
                0x10001a58                fm_async_task_cancel
 .text.fm_power_down
                0x10001a98       0x48 CMakeFiles/fm_example.dir/fm_rda5807/fm_rda5807.c.obj
                0x10001a98                fm_power_down
 .text.i2c_write_blocking_internal
                0x10001ae0      0x122 CMakeFiles/fm_example.dir/home/pi/pico/pico-sdk/src/rp2_common/hardware_i2c/i2c.c.obj
 .text.i2c_read_blocking_internal
                0x10001c02       0xd2 CMakeFiles/fm_example.dir/home/pi/pico/pico-sdk/src/rp2_common/hardware_i2c/i2c.c.obj
 .text.i2c_set_baudrate
                0x10001cd4       0xec CMakeFiles/fm_example.dir/home/pi/pico/pico-sdk/src/rp2_common/hardware_i2c/i2c.c.obj
                0x10001cd4                i2c_set_baudrate
 .text.i2c_init
                0x10001dc0       0x58 CMakeFiles/fm_example.dir/home/pi/pico/pico-sdk/src/rp2_common/hardware_i2c/i2c.c.obj
                0x10001dc0                i2c_init
 .text.i2c_write_blocking
                0x10001e18       0x18 CMakeFiles/fm_example.dir/home/pi/pico/pico-sdk/src/rp2_common/hardware_i2c/i2c.c.obj
                0x10001e18                i2c_write_blocking
 .text.i2c_read_blocking
                0x10001e30       0x18 CMakeFiles/fm_example.dir/home/pi/pico/pico-sdk/src/rp2_common/hardware_i2c/i2c.c.obj
                0x10001e30                i2c_read_blocking
 .text.hw_claim_lock
                0x10001e48       0x18 CMakeFiles/fm_example.dir/home/pi/pico/pico-sdk/src/rp2_common/hardware_claim/claim.c.obj
                0x10001e48                hw_claim_lock
 .text.hw_claim_unlock
                0x10001e60       0x14 CMakeFiles/fm_example.dir/home/pi/pico/pico-sdk/src/rp2_common/hardware_claim/claim.c.obj
                0x10001e60                hw_claim_unlock
 .text.hw_claim_or_assert
                0x10001e74       0x32 CMakeFiles/fm_example.dir/home/pi/pico/pico-sdk/src/rp2_common/hardware_claim/claim.c.obj
                0x10001e74                hw_claim_or_assert
 .text.hw_claim_unused_from_range
                0x10001ea6       0x50 CMakeFiles/fm_example.dir/home/pi/pico/pico-sdk/src/rp2_common/hardware_claim/claim.c.obj
                0x10001ea6                hw_claim_unused_from_range
 *fill*         0x10001ef6        0x2 
 .text.running_on_fpga
                0x10001ef8       0x14 CMakeFiles/fm_example.dir/home/pi/pico/pico-sdk/src/rp2_common/pico_platform/platform.c.obj
                0x10001ef8                running_on_fpga
 .text.spin_locks_reset
                0x10001f0c       0x20 CMakeFiles/fm_example.dir/home/pi/pico/pico-sdk/src/rp2_common/hardware_sync/sync.c.obj
                0x10001f0c                spin_locks_reset
 .text.next_striped_spin_lock_num
                0x10001f2c       0x1c CMakeFiles/fm_example.dir/home/pi/pico/pico-sdk/src/rp2_common/hardware_sync/sync.c.obj
                0x10001f2c                next_striped_spin_lock_num
 .text.spin_lock_claim_unused
                0x10001f48       0x20 CMakeFiles/fm_example.dir/home/pi/pico/pico-sdk/src/rp2_common/hardware_sync/sync.c.obj
                0x10001f48                spin_lock_claim_unused
 .text.rds_get_group_pi
                0x10001f68        0x4 CMakeFiles/fm_example.dir/rds_parser/rds_parser.c.obj
 .text.rds_get_group_type
                0x10001f6c        0x6 CMakeFiles/fm_example.dir/rds_parser/rds_parser.c.obj
 .text.rds_get_group_version
                0x10001f72        0xa CMakeFiles/fm_example.dir/rds_parser/rds_parser.c.obj
 .text.rds_get_group_tp
                0x10001f7c        0xa CMakeFiles/fm_example.dir/rds_parser/rds_parser.c.obj
 .text.rds_get_group_pty
                0x10001f86        0xa CMakeFiles/fm_example.dir/rds_parser/rds_parser.c.obj
 .text.rds_parse_group_basic_di
                0x10001f90       0x28 CMakeFiles/fm_example.dir/rds_parser/rds_parser.c.obj
 .text.rds_add_alt_freq
                0x10001fb8       0x34 CMakeFiles/fm_example.dir/rds_parser/rds_parser.c.obj
 .text.rds_parse_group_basic_alt_freq
                0x10001fec       0x28 CMakeFiles/fm_example.dir/rds_parser/rds_parser.c.obj
 .text.rds_parse_group_basic_ps
                0x10002014       0x30 CMakeFiles/fm_example.dir/rds_parser/rds_parser.c.obj
 .text.rds_parse_group_basic
                0x10002044       0x1c CMakeFiles/fm_example.dir/rds_parser/rds_parser.c.obj
 .text.rds_parse_group_rt
                0x10002060       0x96 CMakeFiles/fm_example.dir/rds_parser/rds_parser.c.obj
 *fill*         0x100020f6        0x2 
 .text.hex_to_char
                0x100020f8       0x30 CMakeFiles/fm_example.dir/rds_parser/rds_parser.c.obj
 .text.rds_parser_reset
                0x10002128        0xc CMakeFiles/fm_example.dir/rds_parser/rds_parser.c.obj
                0x10002128                rds_parser_reset
 .text.rds_parser_update
                0x10002134       0x42 CMakeFiles/fm_example.dir/rds_parser/rds_parser.c.obj
                0x10002134                rds_parser_update
 .text.rds_get_program_id_as_str
                0x10002176       0x3a CMakeFiles/fm_example.dir/rds_parser/rds_parser.c.obj
                0x10002176                rds_get_program_id_as_str
 .text.gpio_set_function
                0x100021b0       0x30 CMakeFiles/fm_example.dir/home/pi/pico/pico-sdk/src/rp2_common/hardware_gpio/gpio.c.obj
                0x100021b0                gpio_set_function
 .text.gpio_set_pulls
                0x100021e0       0x34 CMakeFiles/fm_example.dir/home/pi/pico/pico-sdk/src/rp2_common/hardware_gpio/gpio.c.obj
                0x100021e0                gpio_set_pulls
 .text.gpio_set_input_enabled
                0x10002214       0x30 CMakeFiles/fm_example.dir/home/pi/pico/pico-sdk/src/rp2_common/hardware_gpio/gpio.c.obj
                0x10002214                gpio_set_input_enabled
 .text.gpio_init
                0x10002244       0x16 CMakeFiles/fm_example.dir/home/pi/pico/pico-sdk/src/rp2_common/hardware_gpio/gpio.c.obj
                0x10002244                gpio_init
 *fill*         0x1000225a        0x2 
 .text.uart_set_baudrate
                0x1000225c       0x5c CMakeFiles/fm_example.dir/home/pi/pico/pico-sdk/src/rp2_common/hardware_uart/uart.c.obj
                0x1000225c                uart_set_baudrate
 .text.uart_set_translate_crlf
                0x100022b8       0x28 CMakeFiles/fm_example.dir/home/pi/pico/pico-sdk/src/rp2_common/hardware_uart/uart.c.obj
                0x100022b8                uart_set_translate_crlf
 .text.uart_init
                0x100022e0       0x84 CMakeFiles/fm_example.dir/home/pi/pico/pico-sdk/src/rp2_common/hardware_uart/uart.c.obj
                0x100022e0                uart_init
 .text.alarm_pool_post_alloc_init
                0x10002364       0x40 CMakeFiles/fm_example.dir/home/pi/pico/pico-sdk/src/common/pico_time/time.c.obj
 .text.sleep_until_callback
                0x100023a4       0x30 CMakeFiles/fm_example.dir/home/pi/pico/pico-sdk/src/common/pico_time/time.c.obj
 .text.timer_pool_entry_comparator
                0x100023d4       0x7c CMakeFiles/fm_example.dir/home/pi/pico/pico-sdk/src/common/pico_time/time.c.obj
                0x100023d4                timer_pool_entry_comparator
 .text.ph_add_child_node
                0x10002450       0xa4 CMakeFiles/fm_example.dir/home/pi/pico/pico-sdk/src/common/pico_time/time.c.obj
 .text.ph_merge_nodes
                0x100024f4       0x3a CMakeFiles/fm_example.dir/home/pi/pico/pico-sdk/src/common/pico_time/time.c.obj
 *fill*         0x1000252e        0x2 
 .text.add_alarm_under_lock
                0x10002530      0x180 CMakeFiles/fm_example.dir/home/pi/pico/pico-sdk/src/common/pico_time/time.c.obj
 .text.alarm_pool_alarm_callback
                0x100026b0      0x344 CMakeFiles/fm_example.dir/home/pi/pico/pico-sdk/src/common/pico_time/time.c.obj
 .text.alarm_pool_init_default
                0x100029f4       0x38 CMakeFiles/fm_example.dir/home/pi/pico/pico-sdk/src/common/pico_time/time.c.obj
                0x100029f4                alarm_pool_init_default
 .text.alarm_pool_get_default
                0x10002a2c       0x2c CMakeFiles/fm_example.dir/home/pi/pico/pico-sdk/src/common/pico_time/time.c.obj
                0x10002a2c                alarm_pool_get_default
 .text.alarm_pool_add_alarm_at
                0x10002a58      0x168 CMakeFiles/fm_example.dir/home/pi/pico/pico-sdk/src/common/pico_time/time.c.obj
                0x10002a58                alarm_pool_add_alarm_at
 .text.alarm_pool_cancel_alarm
                0x10002bc0       0xec CMakeFiles/fm_example.dir/home/pi/pico/pico-sdk/src/common/pico_time/time.c.obj
                0x10002bc0                alarm_pool_cancel_alarm
 .text.sleep_until
                0x10002cac       0xfc CMakeFiles/fm_example.dir/home/pi/pico/pico-sdk/src/common/pico_time/time.c.obj
                0x10002cac                sleep_until
 .text.sleep_us
                0x10002da8       0x54 CMakeFiles/fm_example.dir/home/pi/pico/pico-sdk/src/common/pico_time/time.c.obj
                0x10002da8                sleep_us
 .text.sleep_ms
                0x10002dfc       0x14 CMakeFiles/fm_example.dir/home/pi/pico/pico-sdk/src/common/pico_time/time.c.obj
                0x10002dfc                sleep_ms
 .text.best_effort_wfe_or_timeout
                0x10002e10       0x80 CMakeFiles/fm_example.dir/home/pi/pico/pico-sdk/src/common/pico_time/time.c.obj
                0x10002e10                best_effort_wfe_or_timeout
 .text.hardware_alarm_irq_handler
                0x10002e90       0x8c CMakeFiles/fm_example.dir/home/pi/pico/pico-sdk/src/rp2_common/hardware_timer/timer.c.obj
 .text.hardware_alarm_claim
                0x10002f1c       0x18 CMakeFiles/fm_example.dir/home/pi/pico/pico-sdk/src/rp2_common/hardware_timer/timer.c.obj
                0x10002f1c                hardware_alarm_claim
 .text.time_us_64
                0x10002f34       0x18 CMakeFiles/fm_example.dir/home/pi/pico/pico-sdk/src/rp2_common/hardware_timer/timer.c.obj
                0x10002f34                time_us_64
 .text.busy_wait_until
                0x10002f4c       0x28 CMakeFiles/fm_example.dir/home/pi/pico/pico-sdk/src/rp2_common/hardware_timer/timer.c.obj
                0x10002f4c                busy_wait_until
 .text.busy_wait_us
                0x10002f74       0x48 CMakeFiles/fm_example.dir/home/pi/pico/pico-sdk/src/rp2_common/hardware_timer/timer.c.obj
                0x10002f74                busy_wait_us
 .text.hardware_alarm_set_callback
                0x10002fbc       0x90 CMakeFiles/fm_example.dir/home/pi/pico/pico-sdk/src/rp2_common/hardware_timer/timer.c.obj
                0x10002fbc                hardware_alarm_set_callback
 .text.hardware_alarm_set_target
                0x1000304c       0xe8 CMakeFiles/fm_example.dir/home/pi/pico/pico-sdk/src/rp2_common/hardware_timer/timer.c.obj
                0x1000304c                hardware_alarm_set_target
 .text.hardware_alarm_cancel
                0x10003134       0x40 CMakeFiles/fm_example.dir/home/pi/pico/pico-sdk/src/rp2_common/hardware_timer/timer.c.obj
                0x10003134                hardware_alarm_cancel
 .text.lock_init
                0x10003174       0x10 CMakeFiles/fm_example.dir/home/pi/pico/pico-sdk/src/common/pico_sync/lock_core.c.obj
                0x10003174                lock_init
 .text.mutex_init_internal
                0x10003184       0x1e CMakeFiles/fm_example.dir/home/pi/pico/pico-sdk/src/common/pico_sync/mutex.c.obj
 .text.mutex_init
                0x100031a2        0xa CMakeFiles/fm_example.dir/home/pi/pico/pico-sdk/src/common/pico_sync/mutex.c.obj
                0x100031a2                mutex_init
 .text.recursive_mutex_init
                0x100031ac        0xa CMakeFiles/fm_example.dir/home/pi/pico/pico-sdk/src/common/pico_sync/mutex.c.obj
                0x100031ac                recursive_mutex_init
 *fill*         0x100031b6        0x2 
 .text.critical_section_init_with_lock_num
                0x100031b8       0x14 CMakeFiles/fm_example.dir/home/pi/pico/pico-sdk/src/common/pico_sync/critical_section.c.obj
                0x100031b8                critical_section_init_with_lock_num
 .text.critical_section_init
                0x100031cc       0x14 CMakeFiles/fm_example.dir/home/pi/pico/pico-sdk/src/common/pico_sync/critical_section.c.obj
                0x100031cc                critical_section_init
 .text.ph_add_child_node
                0x100031e0       0xa4 CMakeFiles/fm_example.dir/home/pi/pico/pico-sdk/src/common/pico_util/pheap.c.obj
 .text.ph_merge_nodes
                0x10003284       0x3a CMakeFiles/fm_example.dir/home/pi/pico/pico-sdk/src/common/pico_util/pheap.c.obj
 *fill*         0x100032be        0x2 
 .text.ph_clear
                0x100032c0       0x70 CMakeFiles/fm_example.dir/home/pi/pico/pico-sdk/src/common/pico_util/pheap.c.obj
                0x100032c0                ph_clear
 .text.ph_post_alloc_init
                0x10003330        0xe CMakeFiles/fm_example.dir/home/pi/pico/pico-sdk/src/common/pico_util/pheap.c.obj
                0x10003330                ph_post_alloc_init
 *fill*         0x1000333e        0x2 
 .text.ph_merge_two_pass
                0x10003340       0xac CMakeFiles/fm_example.dir/home/pi/pico/pico-sdk/src/common/pico_util/pheap.c.obj
                0x10003340                ph_merge_two_pass
 .text.ph_remove_any_head
                0x100033ec      0x108 CMakeFiles/fm_example.dir/home/pi/pico/pico-sdk/src/common/pico_util/pheap.c.obj
 .text.ph_remove_head
                0x100034f4       0x14 CMakeFiles/fm_example.dir/home/pi/pico/pico-sdk/src/common/pico_util/pheap.c.obj
                0x100034f4                ph_remove_head
 .text.ph_remove_and_free_node
                0x10003508       0xf8 CMakeFiles/fm_example.dir/home/pi/pico/pico-sdk/src/common/pico_util/pheap.c.obj
                0x10003508                ph_remove_and_free_node
 .text.runtime_init
                0x10003600       0xd8 CMakeFiles/fm_example.dir/home/pi/pico/pico-sdk/src/rp2_common/pico_runtime/runtime.c.obj
                0x10003600                runtime_init
 .text._exit    0x100036d8        0x4 CMakeFiles/fm_example.dir/home/pi/pico/pico-sdk/src/rp2_common/pico_runtime/runtime.c.obj
                0x100036d8                _exit
 .text.exit     0x100036dc        0x6 CMakeFiles/fm_example.dir/home/pi/pico/pico-sdk/src/rp2_common/pico_runtime/runtime.c.obj
                0x100036dc                exit
 *fill*         0x100036e2        0x2 
 .text.__assert_func
                0x100036e4       0x3c CMakeFiles/fm_example.dir/home/pi/pico/pico-sdk/src/rp2_common/pico_runtime/runtime.c.obj
                0x100036e4                __assert_func
 .text.panic    0x10003720       0x30 CMakeFiles/fm_example.dir/home/pi/pico/pico-sdk/src/rp2_common/pico_runtime/runtime.c.obj
                0x10003720                panic
 .text.clock_configure
                0x10003750       0xfc CMakeFiles/fm_example.dir/home/pi/pico/pico-sdk/src/rp2_common/hardware_clocks/clocks.c.obj
                0x10003750                clock_configure
 .text.clocks_init
                0x1000384c      0x100 CMakeFiles/fm_example.dir/home/pi/pico/pico-sdk/src/rp2_common/hardware_clocks/clocks.c.obj
                0x1000384c                clocks_init
 .text.clock_get_hz
                0x1000394c        0xc CMakeFiles/fm_example.dir/home/pi/pico/pico-sdk/src/rp2_common/hardware_clocks/clocks.c.obj
                0x1000394c                clock_get_hz
 .text.set_raw_irq_handler_and_unlock
                0x10003958       0x28 CMakeFiles/fm_example.dir/home/pi/pico/pico-sdk/src/rp2_common/hardware_irq/irq.c.obj
 .text.make_branch
                0x10003980       0x34 CMakeFiles/fm_example.dir/home/pi/pico/pico-sdk/src/rp2_common/hardware_irq/irq.c.obj
 .text.insert_branch_and_link
                0x100039b4       0x40 CMakeFiles/fm_example.dir/home/pi/pico/pico-sdk/src/rp2_common/hardware_irq/irq.c.obj
 .text.irq_is_enabled
                0x100039f4       0x18 CMakeFiles/fm_example.dir/home/pi/pico/pico-sdk/src/rp2_common/hardware_irq/irq.c.obj
                0x100039f4                irq_is_enabled
 .text.irq_set_mask_enabled
                0x10003a0c       0x20 CMakeFiles/fm_example.dir/home/pi/pico/pico-sdk/src/rp2_common/hardware_irq/irq.c.obj
                0x10003a0c                irq_set_mask_enabled
 .text.irq_set_enabled
                0x10003a2c        0xe CMakeFiles/fm_example.dir/home/pi/pico/pico-sdk/src/rp2_common/hardware_irq/irq.c.obj
                0x10003a2c                irq_set_enabled
 *fill*         0x10003a3a        0x2 
 .text.irq_set_pending
                0x10003a3c       0x10 CMakeFiles/fm_example.dir/home/pi/pico/pico-sdk/src/rp2_common/hardware_irq/irq.c.obj
                0x10003a3c                irq_set_pending
 .text.irq_get_vtable_handler
                0x10003a4c       0x10 CMakeFiles/fm_example.dir/home/pi/pico/pico-sdk/src/rp2_common/hardware_irq/irq.c.obj
                0x10003a4c                irq_get_vtable_handler
 .text.irq_set_exclusive_handler
                0x10003a5c       0x54 CMakeFiles/fm_example.dir/home/pi/pico/pico-sdk/src/rp2_common/hardware_irq/irq.c.obj
                0x10003a5c                irq_set_exclusive_handler
 .text.irq_remove_handler
                0x10003ab0      0x1b4 CMakeFiles/fm_example.dir/home/pi/pico/pico-sdk/src/rp2_common/hardware_irq/irq.c.obj
                0x10003ab0                irq_remove_handler
 .text.irq_set_priority
                0x10003c64       0x28 CMakeFiles/fm_example.dir/home/pi/pico/pico-sdk/src/rp2_common/hardware_irq/irq.c.obj
                0x10003c64                irq_set_priority
 .text.irq_add_tail_to_free_list
                0x10003c8c       0xf0 CMakeFiles/fm_example.dir/home/pi/pico/pico-sdk/src/rp2_common/hardware_irq/irq.c.obj
                0x10003c8c                irq_add_tail_to_free_list
 .text.irq_init_priorities
                0x10003d7c       0x16 CMakeFiles/fm_example.dir/home/pi/pico/pico-sdk/src/rp2_common/hardware_irq/irq.c.obj
                0x10003d7c                irq_init_priorities
 *fill*         0x10003d92        0x2 
 .text.pll_init
                0x10003d94      0x118 CMakeFiles/fm_example.dir/home/pi/pico/pico-sdk/src/rp2_common/hardware_pll/pll.c.obj
                0x10003d94                pll_init
 .text.watchdog_start_tick
                0x10003eac       0x10 CMakeFiles/fm_example.dir/home/pi/pico/pico-sdk/src/rp2_common/hardware_watchdog/watchdog.c.obj
                0x10003eac                watchdog_start_tick
 .text.watchdog_update
                0x10003ebc       0x14 CMakeFiles/fm_example.dir/home/pi/pico/pico-sdk/src/rp2_common/hardware_watchdog/watchdog.c.obj
                0x10003ebc                watchdog_update
 .text._watchdog_enable
                0x10003ed0       0x6c CMakeFiles/fm_example.dir/home/pi/pico/pico-sdk/src/rp2_common/hardware_watchdog/watchdog.c.obj
                0x10003ed0                _watchdog_enable
 .text.watchdog_reboot
                0x10003f3c       0x44 CMakeFiles/fm_example.dir/home/pi/pico/pico-sdk/src/rp2_common/hardware_watchdog/watchdog.c.obj
                0x10003f3c                watchdog_reboot
 .text.xosc_init
                0x10003f80       0x28 CMakeFiles/fm_example.dir/home/pi/pico/pico-sdk/src/rp2_common/hardware_xosc/xosc.c.obj
                0x10003f80                xosc_init
 .text._out_buffer
                0x10003fa8        0x8 CMakeFiles/fm_example.dir/home/pi/pico/pico-sdk/src/rp2_common/pico_printf/printf.c.obj
 .text._out_null
                0x10003fb0        0x2 CMakeFiles/fm_example.dir/home/pi/pico/pico-sdk/src/rp2_common/pico_printf/printf.c.obj
 .text._out_fct
                0x10003fb2        0xe CMakeFiles/fm_example.dir/home/pi/pico/pico-sdk/src/rp2_common/pico_printf/printf.c.obj
 .text._atoi    0x10003fc0       0x24 CMakeFiles/fm_example.dir/home/pi/pico/pico-sdk/src/rp2_common/pico_printf/printf.c.obj
 .text._out_rev
                0x10003fe4       0x8c CMakeFiles/fm_example.dir/home/pi/pico/pico-sdk/src/rp2_common/pico_printf/printf.c.obj
 .text._ntoa_format
                0x10004070      0x112 CMakeFiles/fm_example.dir/home/pi/pico/pico-sdk/src/rp2_common/pico_printf/printf.c.obj
 .text._ntoa_long
                0x10004182       0x9e CMakeFiles/fm_example.dir/home/pi/pico/pico-sdk/src/rp2_common/pico_printf/printf.c.obj
 .text._ntoa_long_long
                0x10004220       0xe2 CMakeFiles/fm_example.dir/home/pi/pico/pico-sdk/src/rp2_common/pico_printf/printf.c.obj
 *fill*         0x10004302        0x2 
 .text._etoa    0x10004304      0x424 CMakeFiles/fm_example.dir/home/pi/pico/pico-sdk/src/rp2_common/pico_printf/printf.c.obj
 .text._ftoa    0x10004728      0x340 CMakeFiles/fm_example.dir/home/pi/pico/pico-sdk/src/rp2_common/pico_printf/printf.c.obj
 .text._vsnprintf
                0x10004a68      0x640 CMakeFiles/fm_example.dir/home/pi/pico/pico-sdk/src/rp2_common/pico_printf/printf.c.obj
 .text.__wrap_sprintf
                0x100050a8       0x28 CMakeFiles/fm_example.dir/home/pi/pico/pico-sdk/src/rp2_common/pico_printf/printf.c.obj
                0x100050a8                __wrap_sprintf
 .text.vfctprintf
                0x100050d0       0x20 CMakeFiles/fm_example.dir/home/pi/pico/pico-sdk/src/rp2_common/pico_printf/printf.c.obj
                0x100050d0                vfctprintf
 .text          0x100050f0       0x10 CMakeFiles/fm_example.dir/home/pi/pico/pico-sdk/src/rp2_common/pico_bit_ops/bit_ops_aeabi.S.obj
 .text.rom_func_lookup
                0x10005100       0x10 CMakeFiles/fm_example.dir/home/pi/pico/pico-sdk/src/rp2_common/pico_bootrom/bootrom.c.obj
                0x10005100                rom_func_lookup
 .text.rom_data_lookup
                0x10005110       0x10 CMakeFiles/fm_example.dir/home/pi/pico/pico-sdk/src/rp2_common/pico_bootrom/bootrom.c.obj
                0x10005110                rom_data_lookup
 .text.rom_funcs_lookup
                0x10005120       0x36 CMakeFiles/fm_example.dir/home/pi/pico/pico-sdk/src/rp2_common/pico_bootrom/bootrom.c.obj
                0x10005120                rom_funcs_lookup
 *fill*         0x10005156        0x2 
 .text.__wrap___aeabi_idiv
                0x10005158       0x50 CMakeFiles/fm_example.dir/home/pi/pico/pico-sdk/src/rp2_common/pico_divider/divider.S.obj
                0x10005158                __wrap___aeabi_idivmod
                0x10005158                divmod_s32s32
                0x10005158                div_s32s32
                0x10005158                __wrap___aeabi_idiv
                0x10005160                divmod_s32s32_unsafe
                0x1000518c                divmod_s32s32_savestate
 .text.__wrap___aeabi_uidiv
                0x100051a8       0x4c CMakeFiles/fm_example.dir/home/pi/pico/pico-sdk/src/rp2_common/pico_divider/divider.S.obj
                0x100051a8                __wrap___aeabi_uidiv
                0x100051a8                __wrap___aeabi_uidivmod
                0x100051a8                div_u32u32
                0x100051a8                divmod_u32u32
                0x100051b0                divmod_u32u32_unsafe
                0x100051d8                divmod_u32u32_savestate
 .text.__wrap___aeabi_ldiv
                0x100051f4      0x430 CMakeFiles/fm_example.dir/home/pi/pico/pico-sdk/src/rp2_common/pico_divider/divider.S.obj
                0x100051f4                div_s64s64
                0x100051f4                divmod_s64s64
                0x100051f4                __wrap___aeabi_ldivmod
                0x1000522c                div_u64u64
                0x1000522c                divmod_u64u64
                0x1000522c                __wrap___aeabi_uldivmod
                0x1000523c                divmod_u64u64_savestate
                0x10005264                divmod_s64s64_unsafe
                0x100052ec                divmod_u64u64_unsafe
 .text.__wrap___aeabi_darithmetic
                0x10005624       0x80 CMakeFiles/fm_example.dir/home/pi/pico/pico-sdk/src/rp2_common/pico_double/double_aeabi.S.obj
                0x10005624                __wrap___aeabi_drsub
                0x1000562a                __wrap___aeabi_dsub
                0x1000563c                __wrap___aeabi_dadd
                0x1000564e                __wrap___aeabi_ddiv
                0x1000568a                __wrap___aeabi_dmul
 .text.__wrap___aeabi_cdcmple
                0x100056a4       0x6c CMakeFiles/fm_example.dir/home/pi/pico/pico-sdk/src/rp2_common/pico_double/double_aeabi.S.obj
                0x100056a4                __wrap___aeabi_cdrcmple
                0x100056b4                __wrap___aeabi_cdcmple
                0x100056b4                __wrap___aeabi_cdcmpeq
 .text.__wrap___aeabi_dcmplt
                0x10005710        0xc CMakeFiles/fm_example.dir/home/pi/pico/pico-sdk/src/rp2_common/pico_double/double_aeabi.S.obj
                0x10005710                __wrap___aeabi_dcmplt
 .text.__wrap___aeabi_dcmple
                0x1000571c       0x10 CMakeFiles/fm_example.dir/home/pi/pico/pico-sdk/src/rp2_common/pico_double/double_aeabi.S.obj
                0x1000571c                __wrap___aeabi_dcmple
 .text.__wrap___aeabi_dcmpge
                0x1000572c       0x10 CMakeFiles/fm_example.dir/home/pi/pico/pico-sdk/src/rp2_common/pico_double/double_aeabi.S.obj
                0x1000572c                __wrap___aeabi_dcmpge
 .text.__wrap___aeabi_dcmpgt
                0x1000573c        0xa CMakeFiles/fm_example.dir/home/pi/pico/pico-sdk/src/rp2_common/pico_double/double_aeabi.S.obj
                0x1000573c                __wrap___aeabi_dcmpgt
 .text.__wrap___aeabi_dcmpun
                0x10005746       0x1c CMakeFiles/fm_example.dir/home/pi/pico/pico-sdk/src/rp2_common/pico_double/double_aeabi.S.obj
                0x10005746                __wrap___aeabi_dcmpun
 *fill*         0x10005762        0x2 
 .text.__wrap___aeabi_i2d
                0x10005764       0x38 CMakeFiles/fm_example.dir/home/pi/pico/pico-sdk/src/rp2_common/pico_double/double_aeabi.S.obj
                0x10005764                __wrap___aeabi_ui2d
                0x1000576c                __wrap___aeabi_i2d
 .text.__wrap___aeabi_d2iz
                0x1000579c       0x48 CMakeFiles/fm_example.dir/home/pi/pico/pico-sdk/src/rp2_common/pico_double/double_aeabi.S.obj
                0x1000579c                __wrap___aeabi_d2iz
                0x1000579c                double2int_z
 .text.__wrap___aeabi_d2uiz
                0x100057e4       0x18 CMakeFiles/fm_example.dir/home/pi/pico/pico-sdk/src/rp2_common/pico_double/double_aeabi.S.obj
                0x100057e4                double2uint
                0x100057e4                __wrap___aeabi_d2uiz
 .text.__aeabi_double_init
                0x100057fc       0xb8 CMakeFiles/fm_example.dir/home/pi/pico/pico-sdk/src/rp2_common/pico_double/double_init_rom.c.obj
                0x100057fc                __aeabi_double_init
 .text.double_table_shim_on_use_helper
                0x100058b4       0x34 CMakeFiles/fm_example.dir/home/pi/pico/pico-sdk/src/rp2_common/pico_double/double_v1_rom_shim.S.obj
                0x100058b4                double_table_shim_on_use_helper
 .text.__wrap___aeabi_dsub
                0x100058e8       0x10 CMakeFiles/fm_example.dir/home/pi/pico/pico-sdk/src/rp2_common/pico_double/double_v1_rom_shim.S.obj
                0x100058e8                drsub_shim
                0x100058ee                dsub_shim
 .text.dadd_shim
                0x100058f8      0x15c CMakeFiles/fm_example.dir/home/pi/pico/pico-sdk/src/rp2_common/pico_double/double_v1_rom_shim.S.obj
                0x100058f8                dadd_shim
 .text.dmul_shim
                0x10005a54      0x15c CMakeFiles/fm_example.dir/home/pi/pico/pico-sdk/src/rp2_common/pico_double/double_v1_rom_shim.S.obj
                0x10005a54                dmul_shim
 .text.ddiv_shim
                0x10005bb0      0x1b0 CMakeFiles/fm_example.dir/home/pi/pico/pico-sdk/src/rp2_common/pico_double/double_v1_rom_shim.S.obj
                0x10005bb0                ddiv_shim
 .text.dcordic_rot_step
                0x10005d60       0x7c CMakeFiles/fm_example.dir/home/pi/pico/pico-sdk/src/rp2_common/pico_double/double_v1_rom_shim.S.obj
                0x10005d60                dcordic_rot_step
 .text.double2uint_shim
                0x10005ddc        0xe CMakeFiles/fm_example.dir/home/pi/pico/pico-sdk/src/rp2_common/pico_double/double_v1_rom_shim.S.obj
                0x10005ddc                double2uint_shim
                0x10005dde                double2ufix_shim
 *fill*         0x10005dea        0x2 
 .text.double2uint64_shim
                0x10005dec       0x6c CMakeFiles/fm_example.dir/home/pi/pico/pico-sdk/src/rp2_common/pico_double/double_v1_rom_shim.S.obj
                0x10005dec                double2uint64_shim
                0x10005dee                double2ufix64_shim
                0x10005e08                d2fix_a
 .text.dunpacks
                0x10005e58       0x3c CMakeFiles/fm_example.dir/home/pi/pico/pico-sdk/src/rp2_common/pico_double/double_v1_rom_shim.S.obj
                0x10005e58                dunpacks
 .text.__aeabi_lmul
                0x10005e94       0x32 CMakeFiles/fm_example.dir/home/pi/pico/pico-sdk/src/rp2_common/pico_int64_ops/pico_int64_ops_aeabi.S.obj
                0x10005e94                __wrap___aeabi_lmul
 *fill*         0x10005ec6        0x2 
 .text.__wrap___aeabi_farithmetic
                0x10005ec8       0x58 CMakeFiles/fm_example.dir/home/pi/pico/pico-sdk/src/rp2_common/pico_float/float_aeabi.S.obj
                0x10005ec8                __wrap___aeabi_frsub
                0x10005ece                __wrap___aeabi_fsub
                0x10005ed8                __wrap___aeabi_fadd
                0x10005ee2                __wrap___aeabi_fdiv
                0x10005f0e                __wrap___aeabi_fmul
 .text.__wrap___aeabi_cfcmple
                0x10005f20       0x50 CMakeFiles/fm_example.dir/home/pi/pico/pico-sdk/src/rp2_common/pico_float/float_aeabi.S.obj
                0x10005f20                __wrap___aeabi_cfrcmple
                0x10005f2c                __wrap___aeabi_cfcmpeq
                0x10005f2c                __wrap___aeabi_cfcmple
 .text.__wrap___aeabi_fcmpeq
                0x10005f70       0x10 CMakeFiles/fm_example.dir/home/pi/pico/pico-sdk/src/rp2_common/pico_float/float_aeabi.S.obj
                0x10005f70                __wrap___aeabi_fcmpeq
 .text.__wrap___aeabi_fcmplt
                0x10005f80        0xc CMakeFiles/fm_example.dir/home/pi/pico/pico-sdk/src/rp2_common/pico_float/float_aeabi.S.obj
                0x10005f80                __wrap___aeabi_fcmplt
 .text.__wrap___aeabi_fcmpgt
                0x10005f8c        0xa CMakeFiles/fm_example.dir/home/pi/pico/pico-sdk/src/rp2_common/pico_float/float_aeabi.S.obj
                0x10005f8c                __wrap___aeabi_fcmpgt
 *fill*         0x10005f96        0x2 
 .text.__wrap___aeabi_i2f
                0x10005f98       0x44 CMakeFiles/fm_example.dir/home/pi/pico/pico-sdk/src/rp2_common/pico_float/float_aeabi.S.obj
                0x10005f98                __wrap___aeabi_i2f
 .text.__wrap___aeabi_f2uiz
                0x10005fdc       0x10 CMakeFiles/fm_example.dir/home/pi/pico/pico-sdk/src/rp2_common/pico_float/float_aeabi.S.obj
                0x10005fdc                __wrap___aeabi_f2uiz
 .text.__wrap___aeabi_f2d
                0x10005fec       0x14 CMakeFiles/fm_example.dir/home/pi/pico/pico-sdk/src/rp2_common/pico_float/float_aeabi.S.obj
                0x10005fec                __wrap___aeabi_f2d
 .text.__aeabi_float_init
                0x10006000       0xfc CMakeFiles/fm_example.dir/home/pi/pico/pico-sdk/src/rp2_common/pico_float/float_init_rom.c.obj
                0x10006000                __aeabi_float_init
 .text.__wrap_roundf
                0x100060fc       0x3e CMakeFiles/fm_example.dir/home/pi/pico/pico-sdk/src/rp2_common/pico_float/float_math.c.obj
                0x100060fc                __wrap_roundf
 *fill*         0x1000613a        0x2 
 .text.float_table_shim_on_use_helper
                0x1000613c       0x34 CMakeFiles/fm_example.dir/home/pi/pico/pico-sdk/src/rp2_common/pico_float/float_v1_rom_shim.S.obj
                0x1000613c                float_table_shim_on_use_helper
 .text.float2double_shim
                0x10006170       0x30 CMakeFiles/fm_example.dir/home/pi/pico/pico-sdk/src/rp2_common/pico_float/float_v1_rom_shim.S.obj
                0x10006170                float2double_shim
 .text          0x100061a0       0x10 CMakeFiles/fm_example.dir/home/pi/pico/pico-sdk/src/rp2_common/pico_mem_ops/mem_ops_aeabi.S.obj
                0x100061a0                __aeabi_mem_init
 .text.memset   0x100061b0        0xc CMakeFiles/fm_example.dir/home/pi/pico/pico-sdk/src/rp2_common/pico_mem_ops/mem_ops_aeabi.S.obj
                0x100061b0                __wrap_memset
 .text.memcpy   0x100061bc        0xc CMakeFiles/fm_example.dir/home/pi/pico/pico-sdk/src/rp2_common/pico_mem_ops/mem_ops_aeabi.S.obj
                0x100061bc                __wrap___aeabi_memcpy
                0x100061bc                __wrap_memcpy
 .text.stdio_out_chars_crlf
                0x100061c8       0x80 CMakeFiles/fm_example.dir/home/pi/pico/pico-sdk/src/rp2_common/pico_stdio/stdio.c.obj
 .text.stdio_stack_buffer_flush
                0x10006248       0x44 CMakeFiles/fm_example.dir/home/pi/pico/pico-sdk/src/rp2_common/pico_stdio/stdio.c.obj
 .text.stdio_buffered_printer
                0x1000628c       0x20 CMakeFiles/fm_example.dir/home/pi/pico/pico-sdk/src/rp2_common/pico_stdio/stdio.c.obj
 .text.stdio_get_until
                0x100062ac       0x7c CMakeFiles/fm_example.dir/home/pi/pico/pico-sdk/src/rp2_common/pico_stdio/stdio.c.obj
 .text.stdout_serialize_begin
                0x10006328       0x30 CMakeFiles/fm_example.dir/home/pi/pico/pico-sdk/src/rp2_common/pico_stdio/stdio.c.obj
                0x10006328                stdout_serialize_begin
 .text.stdout_serialize_end
                0x10006358       0x10 CMakeFiles/fm_example.dir/home/pi/pico/pico-sdk/src/rp2_common/pico_stdio/stdio.c.obj
                0x10006358                stdout_serialize_end
 .text.stdio_put_string
                0x10006368       0x78 CMakeFiles/fm_example.dir/home/pi/pico/pico-sdk/src/rp2_common/pico_stdio/stdio.c.obj
 .text.stdio_set_driver_enabled
                0x100063e0       0x38 CMakeFiles/fm_example.dir/home/pi/pico/pico-sdk/src/rp2_common/pico_stdio/stdio.c.obj
                0x100063e0                stdio_set_driver_enabled
 .text.stdio_flush
                0x10006418       0x20 CMakeFiles/fm_example.dir/home/pi/pico/pico-sdk/src/rp2_common/pico_stdio/stdio.c.obj
                0x10006418                stdio_flush
 .text.__wrap_puts
                0x10006438       0x1c CMakeFiles/fm_example.dir/home/pi/pico/pico-sdk/src/rp2_common/pico_stdio/stdio.c.obj
                0x10006438                __wrap_puts
 .text.__wrap_vprintf
                0x10006454       0x44 CMakeFiles/fm_example.dir/home/pi/pico/pico-sdk/src/rp2_common/pico_stdio/stdio.c.obj
                0x10006454                __wrap_vprintf
 .text.__wrap_printf
                0x10006498       0x18 CMakeFiles/fm_example.dir/home/pi/pico/pico-sdk/src/rp2_common/pico_stdio/stdio.c.obj
                0x10006498                __wrap_printf
 .text.stdio_init_all
                0x100064b0        0xc CMakeFiles/fm_example.dir/home/pi/pico/pico-sdk/src/rp2_common/pico_stdio/stdio.c.obj
                0x100064b0                stdio_init_all
 .text.getchar_timeout_us
                0x100064bc       0x80 CMakeFiles/fm_example.dir/home/pi/pico/pico-sdk/src/rp2_common/pico_stdio/stdio.c.obj
                0x100064bc                getchar_timeout_us
 .text.stdio_uart_out_chars
                0x1000653c       0x70 CMakeFiles/fm_example.dir/home/pi/pico/pico-sdk/src/rp2_common/pico_stdio_uart/stdio_uart.c.obj
 .text.stdio_uart_in_chars
                0x100065ac       0x50 CMakeFiles/fm_example.dir/home/pi/pico/pico-sdk/src/rp2_common/pico_stdio_uart/stdio_uart.c.obj
                0x100065ac                stdio_uart_in_chars
 .text.stdio_uart_init_full
                0x100065fc       0x3c CMakeFiles/fm_example.dir/home/pi/pico/pico-sdk/src/rp2_common/pico_stdio_uart/stdio_uart.c.obj
                0x100065fc                stdio_uart_init_full
 .text.stdio_uart_init
                0x10006638       0x28 CMakeFiles/fm_example.dir/home/pi/pico/pico-sdk/src/rp2_common/pico_stdio_uart/stdio_uart.c.obj
                0x10006638                stdio_uart_init
 .text.resetd_init
                0x10006660        0x2 CMakeFiles/fm_example.dir/home/pi/pico/pico-sdk/src/rp2_common/pico_stdio_usb/reset_interface.c.obj
 *fill*         0x10006662        0x2 
 .text.resetd_reset
                0x10006664        0xc CMakeFiles/fm_example.dir/home/pi/pico/pico-sdk/src/rp2_common/pico_stdio_usb/reset_interface.c.obj
 .text.resetd_open
                0x10006670       0x34 CMakeFiles/fm_example.dir/home/pi/pico/pico-sdk/src/rp2_common/pico_stdio_usb/reset_interface.c.obj
 .text.resetd_xfer_cb
                0x100066a4        0x4 CMakeFiles/fm_example.dir/home/pi/pico/pico-sdk/src/rp2_common/pico_stdio_usb/reset_interface.c.obj
 .text.resetd_control_xfer_cb
                0x100066a8       0x6c CMakeFiles/fm_example.dir/home/pi/pico/pico-sdk/src/rp2_common/pico_stdio_usb/reset_interface.c.obj
 .text.usbd_app_driver_get_cb
                0x10006714        0xc CMakeFiles/fm_example.dir/home/pi/pico/pico-sdk/src/rp2_common/pico_stdio_usb/reset_interface.c.obj
                0x10006714                usbd_app_driver_get_cb
 .text.tud_cdc_line_coding_cb
                0x10006720       0x34 CMakeFiles/fm_example.dir/home/pi/pico/pico-sdk/src/rp2_common/pico_stdio_usb/reset_interface.c.obj
                0x10006720                tud_cdc_line_coding_cb
 .text.stdio_usb_in_chars
                0x10006754       0x70 CMakeFiles/fm_example.dir/home/pi/pico/pico-sdk/src/rp2_common/pico_stdio_usb/stdio_usb.c.obj
                0x10006754                stdio_usb_in_chars
 .text.low_priority_worker_irq
                0x100067c4       0x20 CMakeFiles/fm_example.dir/home/pi/pico/pico-sdk/src/rp2_common/pico_stdio_usb/stdio_usb.c.obj
 .text.stdio_usb_out_chars
                0x100067e4       0xd4 CMakeFiles/fm_example.dir/home/pi/pico/pico-sdk/src/rp2_common/pico_stdio_usb/stdio_usb.c.obj
 .text.timer_task
                0x100068b8       0x10 CMakeFiles/fm_example.dir/home/pi/pico/pico-sdk/src/rp2_common/pico_stdio_usb/stdio_usb.c.obj
 .text.stdio_usb_init
                0x100068c8       0xb4 CMakeFiles/fm_example.dir/home/pi/pico/pico-sdk/src/rp2_common/pico_stdio_usb/stdio_usb.c.obj
                0x100068c8                stdio_usb_init
 .text.tud_descriptor_device_cb
                0x1000697c        0x8 CMakeFiles/fm_example.dir/home/pi/pico/pico-sdk/src/rp2_common/pico_stdio_usb/stdio_usb_descriptors.c.obj
                0x1000697c                tud_descriptor_device_cb
 .text.tud_descriptor_configuration_cb
                0x10006984        0x8 CMakeFiles/fm_example.dir/home/pi/pico/pico-sdk/src/rp2_common/pico_stdio_usb/stdio_usb_descriptors.c.obj
                0x10006984                tud_descriptor_configuration_cb
 .text.tud_descriptor_string_cb
                0x1000698c       0x68 CMakeFiles/fm_example.dir/home/pi/pico/pico-sdk/src/rp2_common/pico_stdio_usb/stdio_usb_descriptors.c.obj
                0x1000698c                tud_descriptor_string_cb
 .text.hw_endpoint_get_by_addr
                0x100069f4       0x18 CMakeFiles/fm_example.dir/home/pi/pico/pico-sdk/lib/tinyusb/src/portable/raspberrypi/rp2040/dcd_rp2040.c.obj
 .text.reset_ep0
                0x10006a0c       0x2c CMakeFiles/fm_example.dir/home/pi/pico/pico-sdk/lib/tinyusb/src/portable/raspberrypi/rp2040/dcd_rp2040.c.obj
 .text._hw_endpoint_alloc
                0x10006a38       0x80 CMakeFiles/fm_example.dir/home/pi/pico/pico-sdk/lib/tinyusb/src/portable/raspberrypi/rp2040/dcd_rp2040.c.obj
 .text._hw_endpoint_init
                0x10006ab8       0xbc CMakeFiles/fm_example.dir/home/pi/pico/pico-sdk/lib/tinyusb/src/portable/raspberrypi/rp2040/dcd_rp2040.c.obj
 .text.hw_endpoint_init
                0x10006b74       0x18 CMakeFiles/fm_example.dir/home/pi/pico/pico-sdk/lib/tinyusb/src/portable/raspberrypi/rp2040/dcd_rp2040.c.obj
 .text.hw_handle_buff_status
                0x10006b8c       0xb4 CMakeFiles/fm_example.dir/home/pi/pico/pico-sdk/lib/tinyusb/src/portable/raspberrypi/rp2040/dcd_rp2040.c.obj
 .text.dcd_rp2040_irq
                0x10006c40       0xa4 CMakeFiles/fm_example.dir/home/pi/pico/pico-sdk/lib/tinyusb/src/portable/raspberrypi/rp2040/dcd_rp2040.c.obj
 .text.hw_endpoint_xfer
                0x10006ce4       0x18 CMakeFiles/fm_example.dir/home/pi/pico/pico-sdk/lib/tinyusb/src/portable/raspberrypi/rp2040/dcd_rp2040.c.obj
 .text.ep0_0len_status
                0x10006cfc       0x14 CMakeFiles/fm_example.dir/home/pi/pico/pico-sdk/lib/tinyusb/src/portable/raspberrypi/rp2040/dcd_rp2040.c.obj
 .text._hw_endpoint_stall
                0x10006d10       0x54 CMakeFiles/fm_example.dir/home/pi/pico/pico-sdk/lib/tinyusb/src/portable/raspberrypi/rp2040/dcd_rp2040.c.obj
 .text.hw_endpoint_stall
                0x10006d64        0xc CMakeFiles/fm_example.dir/home/pi/pico/pico-sdk/lib/tinyusb/src/portable/raspberrypi/rp2040/dcd_rp2040.c.obj
 .text._hw_endpoint_clear_stall
                0x10006d70       0x34 CMakeFiles/fm_example.dir/home/pi/pico/pico-sdk/lib/tinyusb/src/portable/raspberrypi/rp2040/dcd_rp2040.c.obj
 .text.hw_endpoint_clear_stall
                0x10006da4        0xc CMakeFiles/fm_example.dir/home/pi/pico/pico-sdk/lib/tinyusb/src/portable/raspberrypi/rp2040/dcd_rp2040.c.obj
 .text.dcd_int_enable
                0x10006db0       0x2c CMakeFiles/fm_example.dir/home/pi/pico/pico-sdk/lib/tinyusb/src/portable/raspberrypi/rp2040/dcd_rp2040.c.obj
                0x10006db0                dcd_int_enable
 .text.dcd_set_address
                0x10006ddc       0x28 CMakeFiles/fm_example.dir/home/pi/pico/pico-sdk/lib/tinyusb/src/portable/raspberrypi/rp2040/dcd_rp2040.c.obj
                0x10006ddc                dcd_set_address
 .text.dcd_connect
                0x10006e04       0x30 CMakeFiles/fm_example.dir/home/pi/pico/pico-sdk/lib/tinyusb/src/portable/raspberrypi/rp2040/dcd_rp2040.c.obj
                0x10006e04                dcd_connect
 .text.dcd_init
                0x10006e34       0x84 CMakeFiles/fm_example.dir/home/pi/pico/pico-sdk/lib/tinyusb/src/portable/raspberrypi/rp2040/dcd_rp2040.c.obj
                0x10006e34                dcd_init
 .text.dcd_edpt0_status_complete
                0x10006eb8       0x40 CMakeFiles/fm_example.dir/home/pi/pico/pico-sdk/lib/tinyusb/src/portable/raspberrypi/rp2040/dcd_rp2040.c.obj
                0x10006eb8                dcd_edpt0_status_complete
 .text.dcd_edpt_open
                0x10006ef8       0x40 CMakeFiles/fm_example.dir/home/pi/pico/pico-sdk/lib/tinyusb/src/portable/raspberrypi/rp2040/dcd_rp2040.c.obj
                0x10006ef8                dcd_edpt_open
 .text.dcd_edpt_xfer
                0x10006f38       0x34 CMakeFiles/fm_example.dir/home/pi/pico/pico-sdk/lib/tinyusb/src/portable/raspberrypi/rp2040/dcd_rp2040.c.obj
                0x10006f38                dcd_edpt_xfer
 .text.dcd_edpt_stall
                0x10006f6c       0x28 CMakeFiles/fm_example.dir/home/pi/pico/pico-sdk/lib/tinyusb/src/portable/raspberrypi/rp2040/dcd_rp2040.c.obj
                0x10006f6c                dcd_edpt_stall
 .text.dcd_edpt_clear_stall
                0x10006f94       0x2c CMakeFiles/fm_example.dir/home/pi/pico/pico-sdk/lib/tinyusb/src/portable/raspberrypi/rp2040/dcd_rp2040.c.obj
                0x10006f94                dcd_edpt_clear_stall
 .text.rp2040_usb_init
                0x10006fc0       0x50 CMakeFiles/fm_example.dir/home/pi/pico/pico-sdk/lib/tinyusb/src/portable/raspberrypi/rp2040/rp2040_usb.c.obj
                0x10006fc0                rp2040_usb_init
 .text.hw_endpoint_reset_transfer
                0x10007010       0x10 CMakeFiles/fm_example.dir/home/pi/pico/pico-sdk/lib/tinyusb/src/portable/raspberrypi/rp2040/rp2040_usb.c.obj
                0x10007010                hw_endpoint_reset_transfer
 .text._hw_endpoint_buffer_control_update32
                0x10007020       0x58 CMakeFiles/fm_example.dir/home/pi/pico/pico-sdk/lib/tinyusb/src/portable/raspberrypi/rp2040/rp2040_usb.c.obj
                0x10007020                _hw_endpoint_buffer_control_update32
 .text._hw_endpoint_start_next_buffer
                0x10007078       0x50 CMakeFiles/fm_example.dir/home/pi/pico/pico-sdk/lib/tinyusb/src/portable/raspberrypi/rp2040/rp2040_usb.c.obj
                0x10007078                _hw_endpoint_start_next_buffer
 .text._hw_endpoint_xfer_start
                0x100070c8       0x3e CMakeFiles/fm_example.dir/home/pi/pico/pico-sdk/lib/tinyusb/src/portable/raspberrypi/rp2040/rp2040_usb.c.obj
                0x100070c8                _hw_endpoint_xfer_start
 *fill*         0x10007106        0x2 
 .text._hw_endpoint_xfer_sync
                0x10007108       0x74 CMakeFiles/fm_example.dir/home/pi/pico/pico-sdk/lib/tinyusb/src/portable/raspberrypi/rp2040/rp2040_usb.c.obj
                0x10007108                _hw_endpoint_xfer_sync
 .text._hw_endpoint_xfer_continue
                0x1000717c       0x60 CMakeFiles/fm_example.dir/home/pi/pico/pico-sdk/lib/tinyusb/src/portable/raspberrypi/rp2040/rp2040_usb.c.obj
                0x1000717c                _hw_endpoint_xfer_continue
 .text._hw_endpoint_xfer
                0x100071dc       0x34 CMakeFiles/fm_example.dir/home/pi/pico/pico-sdk/lib/tinyusb/src/portable/raspberrypi/rp2040/rp2040_usb.c.obj
                0x100071dc                _hw_endpoint_xfer
 .text.mark_interface_endpoint
                0x10007210       0x2a CMakeFiles/fm_example.dir/home/pi/pico/pico-sdk/lib/tinyusb/src/device/usbd.c.obj
 *fill*         0x1000723a        0x2 
 .text.usbd_reset
                0x1000723c       0x8c CMakeFiles/fm_example.dir/home/pi/pico/pico-sdk/lib/tinyusb/src/device/usbd.c.obj
 .text.invoke_class_control
                0x100072c8       0x1a CMakeFiles/fm_example.dir/home/pi/pico/pico-sdk/lib/tinyusb/src/device/usbd.c.obj
 *fill*         0x100072e2        0x2 
 .text.process_set_config
                0x100072e4      0x1d8 CMakeFiles/fm_example.dir/home/pi/pico/pico-sdk/lib/tinyusb/src/device/usbd.c.obj
 .text.process_get_descriptor
                0x100074bc      0x104 CMakeFiles/fm_example.dir/home/pi/pico/pico-sdk/lib/tinyusb/src/device/usbd.c.obj
 .text.tud_mounted
                0x100075c0       0x10 CMakeFiles/fm_example.dir/home/pi/pico/pico-sdk/lib/tinyusb/src/device/usbd.c.obj
                0x100075c0                tud_mounted
 .text.tud_suspended
                0x100075d0       0x10 CMakeFiles/fm_example.dir/home/pi/pico/pico-sdk/lib/tinyusb/src/device/usbd.c.obj
                0x100075d0                tud_suspended
 .text.tud_inited
                0x100075e0        0xc CMakeFiles/fm_example.dir/home/pi/pico/pico-sdk/lib/tinyusb/src/device/usbd.c.obj
                0x100075e0                tud_inited
 .text.tud_init
                0x100075ec       0xd0 CMakeFiles/fm_example.dir/home/pi/pico/pico-sdk/lib/tinyusb/src/device/usbd.c.obj
                0x100075ec                tud_init
 .text.dcd_event_handler
                0x100076bc      0x178 CMakeFiles/fm_example.dir/home/pi/pico/pico-sdk/lib/tinyusb/src/device/usbd.c.obj
                0x100076bc                dcd_event_handler
 .text.dcd_event_bus_signal
                0x10007834       0x28 CMakeFiles/fm_example.dir/home/pi/pico/pico-sdk/lib/tinyusb/src/device/usbd.c.obj
                0x10007834                dcd_event_bus_signal
 .text.dcd_event_bus_reset
                0x1000785c       0x2c CMakeFiles/fm_example.dir/home/pi/pico/pico-sdk/lib/tinyusb/src/device/usbd.c.obj
                0x1000785c                dcd_event_bus_reset
 .text.dcd_event_setup_received
                0x10007888       0x34 CMakeFiles/fm_example.dir/home/pi/pico/pico-sdk/lib/tinyusb/src/device/usbd.c.obj
                0x10007888                dcd_event_setup_received
 .text.dcd_event_xfer_complete
                0x100078bc       0x46 CMakeFiles/fm_example.dir/home/pi/pico/pico-sdk/lib/tinyusb/src/device/usbd.c.obj
                0x100078bc                dcd_event_xfer_complete
 *fill*         0x10007902        0x2 
 .text.usbd_edpt_open
                0x10007904       0xe0 CMakeFiles/fm_example.dir/home/pi/pico/pico-sdk/lib/tinyusb/src/device/usbd.c.obj
                0x10007904                usbd_edpt_open
 .text.usbd_open_edpt_pair
                0x100079e4       0x84 CMakeFiles/fm_example.dir/home/pi/pico/pico-sdk/lib/tinyusb/src/device/usbd.c.obj
                0x100079e4                usbd_open_edpt_pair
 .text.usbd_edpt_claim
                0x10007a68       0x88 CMakeFiles/fm_example.dir/home/pi/pico/pico-sdk/lib/tinyusb/src/device/usbd.c.obj
                0x10007a68                usbd_edpt_claim
 .text.usbd_edpt_release
                0x10007af0       0x68 CMakeFiles/fm_example.dir/home/pi/pico/pico-sdk/lib/tinyusb/src/device/usbd.c.obj
                0x10007af0                usbd_edpt_release
 .text.usbd_edpt_xfer
                0x10007b58       0x80 CMakeFiles/fm_example.dir/home/pi/pico/pico-sdk/lib/tinyusb/src/device/usbd.c.obj
                0x10007b58                usbd_edpt_xfer
 .text.usbd_edpt_stall
                0x10007bd8       0x2c CMakeFiles/fm_example.dir/home/pi/pico/pico-sdk/lib/tinyusb/src/device/usbd.c.obj
                0x10007bd8                usbd_edpt_stall
 .text.usbd_edpt_clear_stall
                0x10007c04       0x2c CMakeFiles/fm_example.dir/home/pi/pico/pico-sdk/lib/tinyusb/src/device/usbd.c.obj
                0x10007c04                usbd_edpt_clear_stall
 .text.usbd_edpt_stalled
                0x10007c30       0x1c CMakeFiles/fm_example.dir/home/pi/pico/pico-sdk/lib/tinyusb/src/device/usbd.c.obj
                0x10007c30                usbd_edpt_stalled
 .text.process_control_request
                0x10007c4c      0x380 CMakeFiles/fm_example.dir/home/pi/pico/pico-sdk/lib/tinyusb/src/device/usbd.c.obj
 .text.tud_task
                0x10007fcc      0x208 CMakeFiles/fm_example.dir/home/pi/pico/pico-sdk/lib/tinyusb/src/device/usbd.c.obj
                0x10007fcc                tud_task
 .text._data_stage_xact
                0x100081d4       0x58 CMakeFiles/fm_example.dir/home/pi/pico/pico-sdk/lib/tinyusb/src/device/usbd_control.c.obj
 .text.tud_control_status
                0x1000822c       0x38 CMakeFiles/fm_example.dir/home/pi/pico/pico-sdk/lib/tinyusb/src/device/usbd_control.c.obj
                0x1000822c                tud_control_status
 .text.tud_control_xfer
                0x10008264       0xa4 CMakeFiles/fm_example.dir/home/pi/pico/pico-sdk/lib/tinyusb/src/device/usbd_control.c.obj
                0x10008264                tud_control_xfer
 .text.usbd_control_reset
                0x10008308       0x14 CMakeFiles/fm_example.dir/home/pi/pico/pico-sdk/lib/tinyusb/src/device/usbd_control.c.obj
                0x10008308                usbd_control_reset
 .text.usbd_control_set_complete_callback
                0x1000831c        0xc CMakeFiles/fm_example.dir/home/pi/pico/pico-sdk/lib/tinyusb/src/device/usbd_control.c.obj
                0x1000831c                usbd_control_set_complete_callback
 .text.usbd_control_set_request
                0x10008328       0x1c CMakeFiles/fm_example.dir/home/pi/pico/pico-sdk/lib/tinyusb/src/device/usbd_control.c.obj
                0x10008328                usbd_control_set_request
 .text.usbd_control_xfer_cb
                0x10008344      0x100 CMakeFiles/fm_example.dir/home/pi/pico/pico-sdk/lib/tinyusb/src/device/usbd_control.c.obj
                0x10008344                usbd_control_xfer_cb
 .text._prep_out_transaction
                0x10008444       0x46 CMakeFiles/fm_example.dir/home/pi/pico/pico-sdk/lib/tinyusb/src/class/cdc/cdc_device.c.obj
 *fill*         0x1000848a        0x2 
 .text.tud_cdc_n_connected
                0x1000848c       0x44 CMakeFiles/fm_example.dir/home/pi/pico/pico-sdk/lib/tinyusb/src/class/cdc/cdc_device.c.obj
                0x1000848c                tud_cdc_n_connected
 .text.tud_cdc_n_available
                0x100084d0       0x1c CMakeFiles/fm_example.dir/home/pi/pico/pico-sdk/lib/tinyusb/src/class/cdc/cdc_device.c.obj
                0x100084d0                tud_cdc_n_available
 .text.tud_cdc_n_read
                0x100084ec       0x28 CMakeFiles/fm_example.dir/home/pi/pico/pico-sdk/lib/tinyusb/src/class/cdc/cdc_device.c.obj
                0x100084ec                tud_cdc_n_read
 .text.tud_cdc_n_write_flush
                0x10008514       0xcc CMakeFiles/fm_example.dir/home/pi/pico/pico-sdk/lib/tinyusb/src/class/cdc/cdc_device.c.obj
                0x10008514                tud_cdc_n_write_flush
 .text.tud_cdc_n_write
                0x100085e0       0x38 CMakeFiles/fm_example.dir/home/pi/pico/pico-sdk/lib/tinyusb/src/class/cdc/cdc_device.c.obj
                0x100085e0                tud_cdc_n_write
 .text.tud_cdc_n_write_available
                0x10008618       0x1c CMakeFiles/fm_example.dir/home/pi/pico/pico-sdk/lib/tinyusb/src/class/cdc/cdc_device.c.obj
                0x10008618                tud_cdc_n_write_available
 .text.cdcd_init
                0x10008634       0xb8 CMakeFiles/fm_example.dir/home/pi/pico/pico-sdk/lib/tinyusb/src/class/cdc/cdc_device.c.obj
                0x10008634                cdcd_init
 .text.cdcd_reset
                0x100086ec       0x44 CMakeFiles/fm_example.dir/home/pi/pico/pico-sdk/lib/tinyusb/src/class/cdc/cdc_device.c.obj
                0x100086ec                cdcd_reset
 .text.cdcd_open
                0x10008730      0x10c CMakeFiles/fm_example.dir/home/pi/pico/pico-sdk/lib/tinyusb/src/class/cdc/cdc_device.c.obj
                0x10008730                cdcd_open
 .text.cdcd_control_xfer_cb
                0x1000883c      0x12c CMakeFiles/fm_example.dir/home/pi/pico/pico-sdk/lib/tinyusb/src/class/cdc/cdc_device.c.obj
                0x1000883c                cdcd_control_xfer_cb
 .text.cdcd_xfer_cb
                0x10008968      0x13c CMakeFiles/fm_example.dir/home/pi/pico/pico-sdk/lib/tinyusb/src/class/cdc/cdc_device.c.obj
                0x10008968                cdcd_xfer_cb
 .text.tusb_init
                0x10008aa4       0x24 CMakeFiles/fm_example.dir/home/pi/pico/pico-sdk/lib/tinyusb/src/tusb.c.obj
                0x10008aa4                tusb_init
 .text.tusb_inited
                0x10008ac8        0xe CMakeFiles/fm_example.dir/home/pi/pico/pico-sdk/lib/tinyusb/src/tusb.c.obj
                0x10008ac8                tusb_inited
 .text.advance_pointer
                0x10008ad6       0x20 CMakeFiles/fm_example.dir/home/pi/pico/pico-sdk/lib/tinyusb/src/common/tusb_fifo.c.obj
 .text.backward_pointer
                0x10008af6       0x20 CMakeFiles/fm_example.dir/home/pi/pico/pico-sdk/lib/tinyusb/src/common/tusb_fifo.c.obj
 .text.get_relative_pointer
                0x10008b16       0x10 CMakeFiles/fm_example.dir/home/pi/pico/pico-sdk/lib/tinyusb/src/common/tusb_fifo.c.obj
 .text._tu_fifo_peek
                0x10008b26       0x4c CMakeFiles/fm_example.dir/home/pi/pico/pico-sdk/lib/tinyusb/src/common/tusb_fifo.c.obj
 .text._ff_pull_const_addr
                0x10008b72       0x46 CMakeFiles/fm_example.dir/home/pi/pico/pico-sdk/lib/tinyusb/src/common/tusb_fifo.c.obj
 .text._ff_pull_n
                0x10008bb8       0xfe CMakeFiles/fm_example.dir/home/pi/pico/pico-sdk/lib/tinyusb/src/common/tusb_fifo.c.obj
 .text._tu_fifo_peek_n
                0x10008cb6       0x5e CMakeFiles/fm_example.dir/home/pi/pico/pico-sdk/lib/tinyusb/src/common/tusb_fifo.c.obj
 .text._tu_fifo_read_n
                0x10008d14       0x4e CMakeFiles/fm_example.dir/home/pi/pico/pico-sdk/lib/tinyusb/src/common/tusb_fifo.c.obj
 .text._ff_push_const_addr
                0x10008d62       0x3a CMakeFiles/fm_example.dir/home/pi/pico/pico-sdk/lib/tinyusb/src/common/tusb_fifo.c.obj
 .text._ff_push_n
                0x10008d9c       0xfa CMakeFiles/fm_example.dir/home/pi/pico/pico-sdk/lib/tinyusb/src/common/tusb_fifo.c.obj
 .text._tu_fifo_write_n
                0x10008e96       0x9e CMakeFiles/fm_example.dir/home/pi/pico/pico-sdk/lib/tinyusb/src/common/tusb_fifo.c.obj
 .text.tu_fifo_config
                0x10008f34       0x72 CMakeFiles/fm_example.dir/home/pi/pico/pico-sdk/lib/tinyusb/src/common/tusb_fifo.c.obj
                0x10008f34                tu_fifo_config
 .text.tu_fifo_count
                0x10008fa6       0x24 CMakeFiles/fm_example.dir/home/pi/pico/pico-sdk/lib/tinyusb/src/common/tusb_fifo.c.obj
                0x10008fa6                tu_fifo_count
 .text.tu_fifo_empty
                0x10008fca        0xe CMakeFiles/fm_example.dir/home/pi/pico/pico-sdk/lib/tinyusb/src/common/tusb_fifo.c.obj
                0x10008fca                tu_fifo_empty
 .text.tu_fifo_remaining
                0x10008fd8       0x20 CMakeFiles/fm_example.dir/home/pi/pico/pico-sdk/lib/tinyusb/src/common/tusb_fifo.c.obj
                0x10008fd8                tu_fifo_remaining
 .text.tu_fifo_read
                0x10008ff8       0x42 CMakeFiles/fm_example.dir/home/pi/pico/pico-sdk/lib/tinyusb/src/common/tusb_fifo.c.obj
                0x10008ff8                tu_fifo_read
 .text.tu_fifo_read_n
                0x1000903a        0xa CMakeFiles/fm_example.dir/home/pi/pico/pico-sdk/lib/tinyusb/src/common/tusb_fifo.c.obj
                0x1000903a                tu_fifo_read_n
 .text.tu_fifo_write
                0x10009044       0x6c CMakeFiles/fm_example.dir/home/pi/pico/pico-sdk/lib/tinyusb/src/common/tusb_fifo.c.obj
                0x10009044                tu_fifo_write
 .text.tu_fifo_write_n
                0x100090b0        0xa CMakeFiles/fm_example.dir/home/pi/pico/pico-sdk/lib/tinyusb/src/common/tusb_fifo.c.obj
                0x100090b0                tu_fifo_write_n
 .text.tu_fifo_clear
                0x100090ba       0x4c CMakeFiles/fm_example.dir/home/pi/pico/pico-sdk/lib/tinyusb/src/common/tusb_fifo.c.obj
                0x100090ba                tu_fifo_clear
 .text.tu_fifo_set_overwritable
                0x10009106       0x3c CMakeFiles/fm_example.dir/home/pi/pico/pico-sdk/lib/tinyusb/src/common/tusb_fifo.c.obj
                0x10009106                tu_fifo_set_overwritable
 *fill*         0x10009142        0x2 
 .text._retrieve_unique_id_on_boot
                0x10009144       0x10 CMakeFiles/fm_example.dir/home/pi/pico/pico-sdk/src/rp2_common/pico_unique_id/unique_id.c.obj
 .text.pico_get_unique_board_id_string
                0x10009154       0x60 CMakeFiles/fm_example.dir/home/pi/pico/pico-sdk/src/rp2_common/pico_unique_id/unique_id.c.obj
                0x10009154                pico_get_unique_board_id_string
 .text.flash_get_unique_id
                0x100091b4       0x40 CMakeFiles/fm_example.dir/home/pi/pico/pico-sdk/src/rp2_common/hardware_flash/flash.c.obj
                0x100091b4                flash_get_unique_id
 .text.I2CInit  0x100091f4       0x54 CMakeFiles/fm_example.dir/pico-ss-oled/BitBang_I2C.c.obj
                0x100091f4                I2CInit
 .text.I2CTest  0x10009248       0x1c CMakeFiles/fm_example.dir/pico-ss-oled/BitBang_I2C.c.obj
                0x10009248                I2CTest
 .text.I2CWrite
                0x10009264       0x20 CMakeFiles/fm_example.dir/pico-ss-oled/BitBang_I2C.c.obj
                0x10009264                I2CWrite
 .text.I2CReadRegister
                0x10009284       0x3a CMakeFiles/fm_example.dir/pico-ss-oled/BitBang_I2C.c.obj
                0x10009284                I2CReadRegister
 .text._I2CWrite
                0x100092be       0x12 CMakeFiles/fm_example.dir/pico-ss-oled/ss_oled.c.obj
 .text.__oledWriteCommand2
                0x100092d0       0x1a CMakeFiles/fm_example.dir/pico-ss-oled/ss_oled.c.obj
 .text.__oledSetPosition
                0x100092ea       0x6e CMakeFiles/fm_example.dir/pico-ss-oled/ss_oled.c.obj
 .text.__oledWriteDataBlock
                0x10009358       0x50 CMakeFiles/fm_example.dir/pico-ss-oled/ss_oled.c.obj
 .text.__oledInit
                0x100093a8      0x1c8 CMakeFiles/fm_example.dir/pico-ss-oled/ss_oled.c.obj
                0x100093a8                __oledInit
 .text.__oledSetContrast
                0x10009570        0xc CMakeFiles/fm_example.dir/pico-ss-oled/ss_oled.c.obj
                0x10009570                __oledSetContrast
 .text.__InvertBytes
                0x1000957c       0x16 CMakeFiles/fm_example.dir/pico-ss-oled/ss_oled.c.obj
                0x1000957c                __InvertBytes
 *fill*         0x10009592        0x2 
 .text.__oledWriteString
                0x10009594      0x7e8 CMakeFiles/fm_example.dir/pico-ss-oled/ss_oled.c.obj
                0x10009594                __oledWriteString
 .text.__oledFill
                0x10009d7c       0x86 CMakeFiles/fm_example.dir/pico-ss-oled/ss_oled.c.obj
                0x10009d7c                __oledFill
 .text.__oledSetBackBuffer
                0x10009e02        0x4 CMakeFiles/fm_example.dir/pico-ss-oled/ss_oled.c.obj
                0x10009e02                __oledSetBackBuffer
 *fill*         0x10009e06        0x2 
 .text.adc_init
                0x10009e08       0x34 CMakeFiles/fm_example.dir/home/pi/pico/pico-sdk/src/rp2_common/hardware_adc/adc.c.obj
                0x10009e08                adc_init
 .text          0x10009e3c       0x64 /usr/lib/gcc/arm-none-eabi/7.3.1/../../../arm-none-eabi/lib/thumb/v6-m/libg.a(lib_a-strlen-stub.o)
                0x10009e3c                strlen
 *(.fini)
 .fini          0x10009ea0        0x4 /usr/lib/gcc/arm-none-eabi/7.3.1/thumb/v6-m/crti.o
                0x10009ea0                _fini
 *fill*         0x10009ea4        0x4 
 .fini.__stub   0x10009ea8       0x70 linker stubs
 *crtbegin.o(.ctors)
 *crtbegin?.o(.ctors)
 *(EXCLUDE_FILE(*crtend.o *crtend?.o) .ctors)
 *(SORT_BY_NAME(.ctors.*))
 *(.ctors)
 *crtbegin.o(.dtors)
 *crtbegin?.o(.dtors)
 *(EXCLUDE_FILE(*crtend.o *crtend?.o) .dtors)
 *(SORT_BY_NAME(.dtors.*))
 *(.dtors)
 *(.eh_frame*)
 .eh_frame      0x10009f18        0x0 /usr/lib/gcc/arm-none-eabi/7.3.1/thumb/v6-m/crtbegin.o
                0x10009f18                . = ALIGN (0x4)

.glue_7         0x10009f18        0x0
 .glue_7        0x10009f18        0x0 linker stubs

.glue_7t        0x10009f18        0x0
 .glue_7t       0x10009f18        0x0 linker stubs

.vfp11_veneer   0x10009f18        0x0
 .vfp11_veneer  0x10009f18        0x0 linker stubs

.v4_bx          0x10009f18        0x0
 .v4_bx         0x10009f18        0x0 linker stubs

.iplt           0x10009f18        0x0
 .iplt          0x10009f18        0x0 /usr/lib/gcc/arm-none-eabi/7.3.1/thumb/v6-m/crtbegin.o

.rodata         0x10009f18     0x3c30
 *(EXCLUDE_FILE(*libm.a: *libc.a:*lib_a-mem*.o *libgcc.a:) .rodata*)
 .rodata        0x10009f18        0x3 CMakeFiles/fm_example.dir/fm_example.cpp.obj
 *fill*         0x10009f1b        0x1 
 .rodata._ZL10print_helpv.str1.4
                0x10009f1c      0x181 CMakeFiles/fm_example.dir/fm_example.cpp.obj
                                0x185 (size before relaxing)
 *fill*         0x1000a09d        0x3 
 .rodata._ZL13set_frequencyf.str1.4
                0x1000a0a0       0x12 CMakeFiles/fm_example.dir/fm_example.cpp.obj
                                 0x1e (size before relaxing)
 *fill*         0x1000a0b2        0x2 
 .rodata._ZL14print_rds_infov.str1.4
                0x1000a0b4       0xc1 CMakeFiles/fm_example.dir/fm_example.cpp.obj
 *fill*         0x1000a175        0x3 
 .rodata._ZL15STATION_PRESETS
                0x1000a178       0x18 CMakeFiles/fm_example.dir/fm_example.cpp.obj
 .rodata._ZL18print_station_infov.str1.4
                0x1000a190       0x20 CMakeFiles/fm_example.dir/fm_example.cpp.obj
 .rodata._ZL4loopv.str1.4
                0x1000a1b0       0xb2 CMakeFiles/fm_example.dir/fm_example.cpp.obj
 *fill*         0x1000a262        0x2 
 .rodata._ZL4seek19fm_seek_direction_t.str1.4
                0x1000a264       0x91 CMakeFiles/fm_example.dir/fm_example.cpp.obj
 *fill*         0x1000a2f5        0x3 
 .rodata._ZZ32rds_decode_alternative_frequencyE19__PRETTY_FUNCTION__
                0x1000a2f8       0x30 CMakeFiles/fm_example.dir/fm_example.cpp.obj
 .rodata.main.str1.4
                0x1000a328       0x2d CMakeFiles/fm_example.dir/fm_example.cpp.obj
 *fill*         0x1000a355        0x3 
 .rodata.__func__.6064
                0x1000a358       0x12 CMakeFiles/fm_example.dir/fm_rda5807/fm_rda5807.c.obj
 *fill*         0x1000a36a        0x2 
 .rodata.__func__.6079
                0x1000a36c       0x18 CMakeFiles/fm_example.dir/fm_rda5807/fm_rda5807.c.obj
 .rodata.__func__.6086
                0x1000a384       0x13 CMakeFiles/fm_example.dir/fm_rda5807/fm_rda5807.c.obj
 *fill*         0x1000a397        0x1 
 .rodata.__func__.6101
                0x1000a398       0x19 CMakeFiles/fm_example.dir/fm_rda5807/fm_rda5807.c.obj
 *fill*         0x1000a3b1        0x3 
 .rodata.__func__.6108
                0x1000a3b4       0x19 CMakeFiles/fm_example.dir/fm_rda5807/fm_rda5807.c.obj
 *fill*         0x1000a3cd        0x3 
 .rodata.__func__.6117
                0x1000a3d0       0x18 CMakeFiles/fm_example.dir/fm_rda5807/fm_rda5807.c.obj
 .rodata.__func__.6151
                0x1000a3e8        0xc CMakeFiles/fm_example.dir/fm_rda5807/fm_rda5807.c.obj
 .rodata.__func__.6158
                0x1000a3f4        0xe CMakeFiles/fm_example.dir/fm_rda5807/fm_rda5807.c.obj
 *fill*         0x1000a402        0x2 
 .rodata.__func__.6176
                0x1000a404       0x1a CMakeFiles/fm_example.dir/fm_rda5807/fm_rda5807.c.obj
 *fill*         0x1000a41e        0x2 
 .rodata.__func__.6184
                0x1000a420       0x1c CMakeFiles/fm_example.dir/fm_rda5807/fm_rda5807.c.obj
 .rodata.__func__.6195
                0x1000a43c       0x17 CMakeFiles/fm_example.dir/fm_rda5807/fm_rda5807.c.obj
 *fill*         0x1000a453        0x1 
 .rodata.__func__.6205
                0x1000a454       0x16 CMakeFiles/fm_example.dir/fm_rda5807/fm_rda5807.c.obj
 *fill*         0x1000a46a        0x2 
 .rodata.__func__.6220
                0x1000a46c       0x13 CMakeFiles/fm_example.dir/fm_rda5807/fm_rda5807.c.obj
 *fill*         0x1000a47f        0x1 
 .rodata.__func__.6232
                0x1000a480        0xe CMakeFiles/fm_example.dir/fm_rda5807/fm_rda5807.c.obj
 *fill*         0x1000a48e        0x2 
 .rodata.__func__.6241
                0x1000a490        0xc CMakeFiles/fm_example.dir/fm_rda5807/fm_rda5807.c.obj
 .rodata.__func__.6250
                0x1000a49c       0x10 CMakeFiles/fm_example.dir/fm_rda5807/fm_rda5807.c.obj
 .rodata.__func__.6259
                0x1000a4ac       0x12 CMakeFiles/fm_example.dir/fm_rda5807/fm_rda5807.c.obj
 *fill*         0x1000a4be        0x2 
 .rodata.__func__.6268
                0x1000a4c0        0xc CMakeFiles/fm_example.dir/fm_rda5807/fm_rda5807.c.obj
 .rodata.__func__.6277
                0x1000a4cc        0xe CMakeFiles/fm_example.dir/fm_rda5807/fm_rda5807.c.obj
 *fill*         0x1000a4da        0x2 
 .rodata.__func__.6282
                0x1000a4dc        0xc CMakeFiles/fm_example.dir/fm_rda5807/fm_rda5807.c.obj
 .rodata.__func__.6288
                0x1000a4e8       0x18 CMakeFiles/fm_example.dir/fm_rda5807/fm_rda5807.c.obj
 .rodata.__func__.6295
                0x1000a500       0x12 CMakeFiles/fm_example.dir/fm_rda5807/fm_rda5807.c.obj
 *fill*         0x1000a512        0x2 
 .rodata.__func__.6301
                0x1000a514       0x13 CMakeFiles/fm_example.dir/fm_rda5807/fm_rda5807.c.obj
 *fill*         0x1000a527        0x1 
 .rodata.__func__.6308
                0x1000a528       0x15 CMakeFiles/fm_example.dir/fm_rda5807/fm_rda5807.c.obj
 *fill*         0x1000a53d        0x3 
 .rodata.fm_async_task_tick.str1.4
                0x1000a540       0x1a CMakeFiles/fm_example.dir/fm_rda5807/fm_rda5807.c.obj
 *fill*         0x1000a55a        0x2 
 .rodata.fm_power_up.str1.4
                0x1000a55c       0x62 CMakeFiles/fm_example.dir/fm_rda5807/fm_rda5807.c.obj
 *fill*         0x1000a5be        0x2 
 .rodata.fm_read_registers.str1.4
                0x1000a5c0        0x7 CMakeFiles/fm_example.dir/fm_rda5807/fm_rda5807.c.obj
 *fill*         0x1000a5c7        0x1 
 .rodata.fm_read_registers_up_to.str1.4
                0x1000a5c8       0x25 CMakeFiles/fm_example.dir/fm_rda5807/fm_rda5807.c.obj
 .rodata.fm_read_single_register.str1.4
                0x1000a5ed       0x25 CMakeFiles/fm_example.dir/fm_rda5807/fm_rda5807.c.obj
                                 0x11 (size before relaxing)
 *fill*         0x1000a5ed        0x3 
 .rodata.fm_seek_async_task.str1.4
                0x1000a5f0       0x29 CMakeFiles/fm_example.dir/fm_rda5807/fm_rda5807.c.obj
 *fill*         0x1000a619        0x3 
 .rodata.fm_set_frequency_async.str1.4
                0x1000a61c       0x32 CMakeFiles/fm_example.dir/fm_rda5807/fm_rda5807.c.obj
 *fill*         0x1000a64e        0x2 
 .rodata.fm_set_frequency_async_task.str1.4
                0x1000a650       0x4c CMakeFiles/fm_example.dir/fm_rda5807/fm_rda5807.c.obj
 .rodata.fm_write_registers.str1.4
                0x1000a69c       0x3b CMakeFiles/fm_example.dir/fm_rda5807/fm_rda5807.c.obj
 *fill*         0x1000a6d7        0x1 
 .rodata.fm_write_registers_up_to.str1.4
                0x1000a6d8       0x25 CMakeFiles/fm_example.dir/fm_rda5807/fm_rda5807.c.obj
 *fill*         0x1000a6fd        0x3 
 .rodata.__func__.4732
                0x1000a700       0x11 CMakeFiles/fm_example.dir/home/pi/pico/pico-sdk/src/rp2_common/hardware_i2c/i2c.c.obj
 *fill*         0x1000a711        0x3 
 .rodata.i2c_set_baudrate.str1.4
                0x1000a714       0x59 CMakeFiles/fm_example.dir/home/pi/pico/pico-sdk/src/rp2_common/hardware_i2c/i2c.c.obj
 *fill*         0x1000a76d        0x3 
 .rodata.spin_lock_claim_unused.str1.4
                0x1000a770       0x1b CMakeFiles/fm_example.dir/home/pi/pico/pico-sdk/src/rp2_common/hardware_sync/sync.c.obj
 *fill*         0x1000a78b        0x1 
 .rodata.__func__.5033
                0x1000a78c        0xc CMakeFiles/fm_example.dir/rds_parser/rds_parser.c.obj
 .rodata.hex_to_char.str1.4
                0x1000a798       0x3f CMakeFiles/fm_example.dir/rds_parser/rds_parser.c.obj
 *fill*         0x1000a7d7        0x1 
 .rodata.__func__.5648
                0x1000a7d8       0x15 CMakeFiles/fm_example.dir/home/pi/pico/pico-sdk/src/common/pico_time/time.c.obj
 *fill*         0x1000a7ed        0x3 
 .rodata.__func__.5949
                0x1000a7f0        0xc CMakeFiles/fm_example.dir/home/pi/pico/pico-sdk/src/common/pico_time/time.c.obj
 .rodata.__func__.5956
                0x1000a7fc       0x12 CMakeFiles/fm_example.dir/home/pi/pico/pico-sdk/src/common/pico_time/time.c.obj
 *fill*         0x1000a80e        0x2 
 .rodata.__func__.5972
                0x1000a810        0xf CMakeFiles/fm_example.dir/home/pi/pico/pico-sdk/src/common/pico_time/time.c.obj
 *fill*         0x1000a81f        0x1 
 .rodata.__func__.5994
                0x1000a820        0xd CMakeFiles/fm_example.dir/home/pi/pico/pico-sdk/src/common/pico_time/time.c.obj
 *fill*         0x1000a82d        0x3 
 .rodata.__func__.6195
                0x1000a830        0xa CMakeFiles/fm_example.dir/home/pi/pico/pico-sdk/src/common/pico_time/time.c.obj
 *fill*         0x1000a83a        0x2 
 .rodata.__func__.6200
                0x1000a83c       0x12 CMakeFiles/fm_example.dir/home/pi/pico/pico-sdk/src/common/pico_time/time.c.obj
 *fill*         0x1000a84e        0x2 
 .rodata.__func__.6215
                0x1000a850       0x17 CMakeFiles/fm_example.dir/home/pi/pico/pico-sdk/src/common/pico_time/time.c.obj
 *fill*         0x1000a867        0x1 
 .rodata.__func__.6226
                0x1000a868       0x15 CMakeFiles/fm_example.dir/home/pi/pico/pico-sdk/src/common/pico_time/time.c.obj
 *fill*         0x1000a87d        0x3 
 .rodata.__func__.6243
                0x1000a880       0x1a CMakeFiles/fm_example.dir/home/pi/pico/pico-sdk/src/common/pico_time/time.c.obj
 *fill*         0x1000a89a        0x2 
 .rodata.__func__.6282
                0x1000a89c       0x18 CMakeFiles/fm_example.dir/home/pi/pico/pico-sdk/src/common/pico_time/time.c.obj
 .rodata.add_alarm_under_lock.str1.4
                0x1000a8b4       0x28 CMakeFiles/fm_example.dir/home/pi/pico/pico-sdk/src/common/pico_time/time.c.obj
                                 0x2b (size before relaxing)
 .rodata.alarm_pool_alarm_callback.str1.4
                0x1000a8dc       0xe2 CMakeFiles/fm_example.dir/home/pi/pico/pico-sdk/src/common/pico_time/time.c.obj
 *fill*         0x1000a9be        0x2 
 .rodata.alarm_pool_cancel_alarm.str1.4
                0x1000a9c0       0x27 CMakeFiles/fm_example.dir/home/pi/pico/pico-sdk/src/common/pico_time/time.c.obj
 *fill*         0x1000a9e7        0x1 
 .rodata.alarm_pool_dump_key.str1.4
                0x1000a9e8       0x33 CMakeFiles/fm_example.dir/home/pi/pico/pico-sdk/src/common/pico_time/time.c.obj
 *fill*         0x1000aa1b        0x1 
 .rodata.alarm_pool_get_default.str1.4
                0x1000aa1c       0x21 CMakeFiles/fm_example.dir/home/pi/pico/pico-sdk/src/common/pico_time/time.c.obj
 *fill*         0x1000aa3d        0x3 
 .rodata.ph_add_child_node.str1.4
                0x1000aa40       0x92 CMakeFiles/fm_example.dir/home/pi/pico/pico-sdk/src/common/pico_time/time.c.obj
 *fill*         0x1000aad2        0x2 
 .rodata.repeating_timer_callback.str1.4
                0x1000aad4       0x47 CMakeFiles/fm_example.dir/home/pi/pico/pico-sdk/src/common/pico_time/time.c.obj
 *fill*         0x1000ab1b        0x1 
 .rodata.sleep_until.str1.4
                0x1000ab1c       0x4d CMakeFiles/fm_example.dir/home/pi/pico/pico-sdk/src/common/pico_time/time.c.obj
 *fill*         0x1000ab69        0x3 
 .rodata.__func__.4173
                0x1000ab6c       0x15 CMakeFiles/fm_example.dir/home/pi/pico/pico-sdk/src/rp2_common/hardware_timer/timer.c.obj
 *fill*         0x1000ab81        0x3 
 .rodata.__func__.4508
                0x1000ab84       0x1a CMakeFiles/fm_example.dir/home/pi/pico/pico-sdk/src/rp2_common/hardware_timer/timer.c.obj
 .rodata.busy_wait_us.str1.4
                0x1000ab9e       0x5d CMakeFiles/fm_example.dir/home/pi/pico/pico-sdk/src/rp2_common/hardware_timer/timer.c.obj
 *fill*         0x1000ab9e        0x2 
 .rodata.hardware_alarm_claim.str1.4
                0x1000aba0       0x22 CMakeFiles/fm_example.dir/home/pi/pico/pico-sdk/src/rp2_common/hardware_timer/timer.c.obj
 *fill*         0x1000abc2        0x2 
 .rodata.hardware_alarm_set_target.str1.4
                0x1000abc4       0x61 CMakeFiles/fm_example.dir/home/pi/pico/pico-sdk/src/rp2_common/hardware_timer/timer.c.obj
 *fill*         0x1000ac25        0x3 
 .rodata.__func__.4173
                0x1000ac28       0x15 CMakeFiles/fm_example.dir/home/pi/pico/pico-sdk/src/common/pico_sync/mutex.c.obj
 *fill*         0x1000ac3d        0x3 
 .rodata.__func__.4570
                0x1000ac40       0x15 CMakeFiles/fm_example.dir/home/pi/pico/pico-sdk/src/common/pico_sync/mutex.c.obj
 *fill*         0x1000ac55        0x3 
 .rodata.__func__.4595
                0x1000ac58       0x18 CMakeFiles/fm_example.dir/home/pi/pico/pico-sdk/src/common/pico_sync/mutex.c.obj
 .rodata.__func__.4605
                0x1000ac70        0xb CMakeFiles/fm_example.dir/home/pi/pico/pico-sdk/src/common/pico_sync/mutex.c.obj
 *fill*         0x1000ac7b        0x1 
 .rodata.str1.4
                0x1000ac7c       0xad CMakeFiles/fm_example.dir/home/pi/pico/pico-sdk/src/common/pico_sync/mutex.c.obj
                                0x10d (size before relaxing)
 *fill*         0x1000ad29        0x3 
 .rodata.__func__.5655
                0x1000ad2c        0xc CMakeFiles/fm_example.dir/home/pi/pico/pico-sdk/src/common/pico_util/pheap.c.obj
 .rodata.__func__.5662
                0x1000ad38       0x12 CMakeFiles/fm_example.dir/home/pi/pico/pico-sdk/src/common/pico_util/pheap.c.obj
 *fill*         0x1000ad4a        0x2 
 .rodata.__func__.5748
                0x1000ad4c       0x13 CMakeFiles/fm_example.dir/home/pi/pico/pico-sdk/src/common/pico_util/pheap.c.obj
 *fill*         0x1000ad5f        0x1 
 .rodata.__func__.5766
                0x1000ad60       0x18 CMakeFiles/fm_example.dir/home/pi/pico/pico-sdk/src/common/pico_util/pheap.c.obj
 .rodata.ph_add_child_node.str1.4
                0x1000ad78       0x92 CMakeFiles/fm_example.dir/home/pi/pico/pico-sdk/src/common/pico_util/pheap.c.obj
 .rodata.ph_remove_and_free_node.str1.4
                0x1000ad78       0x26 CMakeFiles/fm_example.dir/home/pi/pico/pico-sdk/src/common/pico_util/pheap.c.obj
 *fill*         0x1000ad9e        0x2 
 .rodata.ph_remove_any_head.str1.4
                0x1000ada0       0x88 CMakeFiles/fm_example.dir/home/pi/pico/pico-sdk/src/common/pico_util/pheap.c.obj
 .rodata.__assert_func.str1.4
                0x1000ae28       0x3f CMakeFiles/fm_example.dir/home/pi/pico/pico-sdk/src/rp2_common/pico_runtime/runtime.c.obj
                                 0x43 (size before relaxing)
 *fill*         0x1000ae67        0x1 
 .rodata.panic.str1.4
                0x1000ae68       0x10 CMakeFiles/fm_example.dir/home/pi/pico/pico-sdk/src/rp2_common/pico_runtime/runtime.c.obj
                                 0x12 (size before relaxing)
 .rodata.__func__.4627
                0x1000ae78       0x10 CMakeFiles/fm_example.dir/home/pi/pico/pico-sdk/src/rp2_common/hardware_clocks/clocks.c.obj
 .rodata.clock_configure.str1.4
                0x1000ae88       0x53 CMakeFiles/fm_example.dir/home/pi/pico/pico-sdk/src/rp2_common/hardware_clocks/clocks.c.obj
 *fill*         0x1000aedb        0x1 
 .rodata.__func__.4663
                0x1000aedc       0x1a CMakeFiles/fm_example.dir/home/pi/pico/pico-sdk/src/rp2_common/hardware_irq/irq.c.obj
 *fill*         0x1000aef6        0x2 
 .rodata.__func__.4677
                0x1000aef8        0xc CMakeFiles/fm_example.dir/home/pi/pico/pico-sdk/src/rp2_common/hardware_irq/irq.c.obj
 .rodata.__func__.4685
                0x1000af04       0x17 CMakeFiles/fm_example.dir/home/pi/pico/pico-sdk/src/rp2_common/hardware_irq/irq.c.obj
 *fill*         0x1000af1b        0x1 
 .rodata.__func__.4689
                0x1000af1c        0xf CMakeFiles/fm_example.dir/home/pi/pico/pico-sdk/src/rp2_common/hardware_irq/irq.c.obj
 *fill*         0x1000af2b        0x1 
 .rodata.__func__.4728
                0x1000af2c       0x13 CMakeFiles/fm_example.dir/home/pi/pico/pico-sdk/src/rp2_common/hardware_irq/irq.c.obj
 *fill*         0x1000af3f        0x1 
 .rodata.__func__.4747
                0x1000af40       0x1a CMakeFiles/fm_example.dir/home/pi/pico/pico-sdk/src/rp2_common/hardware_irq/irq.c.obj
 *fill*         0x1000af5a        0x2 
 .rodata.irq_add_shared_handler.str1.4
                0x1000af5c       0xd9 CMakeFiles/fm_example.dir/home/pi/pico/pico-sdk/src/rp2_common/hardware_irq/irq.c.obj
 *fill*         0x1000b035        0x3 
 .rodata.irq_add_tail_to_free_list.str1.4
                0x1000b038       0x32 CMakeFiles/fm_example.dir/home/pi/pico/pico-sdk/src/rp2_common/hardware_irq/irq.c.obj
                                 0x3a (size before relaxing)
 *fill*         0x1000b06a        0x2 
 .rodata.irq_remove_handler.str1.4
                0x1000b06c       0x2a CMakeFiles/fm_example.dir/home/pi/pico/pico-sdk/src/rp2_common/hardware_irq/irq.c.obj
 *fill*         0x1000b096        0x2 
 .rodata.irq_set_exclusive_handler.str1.4
                0x1000b098       0x36 CMakeFiles/fm_example.dir/home/pi/pico/pico-sdk/src/rp2_common/hardware_irq/irq.c.obj
 *fill*         0x1000b0ce        0x2 
 .rodata.make_branch.str1.4
                0x1000b0d0       0x49 CMakeFiles/fm_example.dir/home/pi/pico/pico-sdk/src/rp2_common/hardware_irq/irq.c.obj
 *fill*         0x1000b119        0x3 
 .rodata.__func__.4362
                0x1000b11c        0x9 CMakeFiles/fm_example.dir/home/pi/pico/pico-sdk/src/rp2_common/hardware_pll/pll.c.obj
 *fill*         0x1000b125        0x3 
 .rodata.pll_init.str1.4
                0x1000b128       0xd7 CMakeFiles/fm_example.dir/home/pi/pico/pico-sdk/src/rp2_common/hardware_pll/pll.c.obj
 *fill*         0x1000b1ff        0x1 
 .rodata._vsnprintf
                0x1000b200      0x1e0 CMakeFiles/fm_example.dir/home/pi/pico/pico-sdk/src/rp2_common/pico_printf/printf.c.obj
 .rodata._ftoa.str1.4
                0x1000b3e0       0x15 CMakeFiles/fm_example.dir/home/pi/pico/pico-sdk/src/rp2_common/pico_printf/printf.c.obj
 *fill*         0x1000b3f5        0x3 
 .rodata.pow10.5369
                0x1000b3f8       0x50 CMakeFiles/fm_example.dir/home/pi/pico/pico-sdk/src/rp2_common/pico_printf/printf.c.obj
 .rodata.__aeabi_double_init.str1.4
                0x1000b448       0xa4 CMakeFiles/fm_example.dir/home/pi/pico/pico-sdk/src/rp2_common/pico_double/double_init_rom.c.obj
 .rodata.__func__.4628
                0x1000b4ec       0x14 CMakeFiles/fm_example.dir/home/pi/pico/pico-sdk/src/rp2_common/pico_double/double_init_rom.c.obj
 .rodata.__aeabi_float_init.str1.4
                0x1000b500       0x76 CMakeFiles/fm_example.dir/home/pi/pico/pico-sdk/src/rp2_common/pico_float/float_init_rom.c.obj
                                 0x7a (size before relaxing)
 *fill*         0x1000b576        0x2 
 .rodata.__func__.4630
                0x1000b578       0x13 CMakeFiles/fm_example.dir/home/pi/pico/pico-sdk/src/rp2_common/pico_float/float_init_rom.c.obj
 *fill*         0x1000b58b        0x1 
 .rodata.__bi_44
                0x1000b58c        0xc CMakeFiles/fm_example.dir/home/pi/pico/pico-sdk/src/rp2_common/pico_standard_link/binary_info.c.obj
 .rodata.__bi_75
                0x1000b598        0xc CMakeFiles/fm_example.dir/home/pi/pico/pico-sdk/src/rp2_common/pico_standard_link/binary_info.c.obj
 .rodata.__bi_81
                0x1000b5a4        0xc CMakeFiles/fm_example.dir/home/pi/pico/pico-sdk/src/rp2_common/pico_standard_link/binary_info.c.obj
 .rodata.str1.4
                0x1000b5b0       0x40 CMakeFiles/fm_example.dir/home/pi/pico/pico-sdk/src/rp2_common/pico_standard_link/binary_info.c.obj
 .rodata.__func__.5371
                0x1000b5f0       0x15 CMakeFiles/fm_example.dir/home/pi/pico/pico-sdk/src/rp2_common/pico_stdio/stdio.c.obj
 *fill*         0x1000b605        0x3 
 .rodata.__func__.6066
                0x1000b608       0x13 CMakeFiles/fm_example.dir/home/pi/pico/pico-sdk/src/rp2_common/pico_stdio/stdio.c.obj
 *fill*         0x1000b61b        0x1 
 .rodata.__wrap_getchar.str1.4
                0x1000b61c       0x45 CMakeFiles/fm_example.dir/home/pi/pico/pico-sdk/src/rp2_common/pico_stdio/stdio.c.obj
 *fill*         0x1000b661        0x3 
 .rodata.crlf_str.5960
                0x1000b664        0x2 CMakeFiles/fm_example.dir/home/pi/pico/pico-sdk/src/rp2_common/pico_stdio/stdio.c.obj
 .rodata.getchar_timeout_us.str1.4
                0x1000b666       0x63 CMakeFiles/fm_example.dir/home/pi/pico/pico-sdk/src/rp2_common/pico_stdio/stdio.c.obj
 *fill*         0x1000b666        0x2 
 .rodata.__bi_28.4699
                0x1000b668        0xc CMakeFiles/fm_example.dir/home/pi/pico/pico-sdk/src/rp2_common/pico_stdio_uart/stdio_uart.c.obj
 .rodata.__bi_29.4703
                0x1000b674        0x8 CMakeFiles/fm_example.dir/home/pi/pico/pico-sdk/src/rp2_common/pico_stdio_uart/stdio_uart.c.obj
 .rodata.str1.4
                0x1000b67c       0x2c CMakeFiles/fm_example.dir/home/pi/pico/pico-sdk/src/rp2_common/pico_stdio_uart/stdio_uart.c.obj
 .rodata._resetd_driver
                0x1000b6a8       0x18 CMakeFiles/fm_example.dir/home/pi/pico/pico-sdk/src/rp2_common/pico_stdio_usb/reset_interface.c.obj
 .rodata.__bi_93.7101
                0x1000b6c0        0xc CMakeFiles/fm_example.dir/home/pi/pico/pico-sdk/src/rp2_common/pico_stdio_usb/stdio_usb.c.obj
 .rodata.__func__.5371
                0x1000b6cc       0x15 CMakeFiles/fm_example.dir/home/pi/pico/pico-sdk/src/rp2_common/pico_stdio_usb/stdio_usb.c.obj
 .rodata.stdio_usb_init.str1.4
                0x1000b6e1       0x5d CMakeFiles/fm_example.dir/home/pi/pico/pico-sdk/src/rp2_common/pico_stdio_usb/stdio_usb.c.obj
 *fill*         0x1000b6e1        0x3 
 .rodata.str1.4
                0x1000b6e4       0x13 CMakeFiles/fm_example.dir/home/pi/pico/pico-sdk/src/rp2_common/pico_stdio_usb/stdio_usb.c.obj
 *fill*         0x1000b6f7        0x1 
 .rodata.str1.4
                0x1000b6f8       0x2a CMakeFiles/fm_example.dir/home/pi/pico/pico-sdk/src/rp2_common/pico_stdio_usb/stdio_usb_descriptors.c.obj
 *fill*         0x1000b722        0x2 
 .rodata.usbd_desc_cfg
                0x1000b724       0x54 CMakeFiles/fm_example.dir/home/pi/pico/pico-sdk/src/rp2_common/pico_stdio_usb/stdio_usb_descriptors.c.obj
 .rodata.usbd_desc_device
                0x1000b778       0x12 CMakeFiles/fm_example.dir/home/pi/pico/pico-sdk/src/rp2_common/pico_stdio_usb/stdio_usb_descriptors.c.obj
 *fill*         0x1000b78a        0x2 
 .rodata.usbd_desc_str
                0x1000b78c       0x18 CMakeFiles/fm_example.dir/home/pi/pico/pico-sdk/src/rp2_common/pico_stdio_usb/stdio_usb_descriptors.c.obj
 .rodata.__func__.6806
                0x1000b7a4       0x13 CMakeFiles/fm_example.dir/home/pi/pico/pico-sdk/lib/tinyusb/src/portable/raspberrypi/rp2040/dcd_rp2040.c.obj
 *fill*         0x1000b7b7        0x1 
 .rodata.__func__.6837
                0x1000b7b8       0x16 CMakeFiles/fm_example.dir/home/pi/pico/pico-sdk/lib/tinyusb/src/portable/raspberrypi/rp2040/dcd_rp2040.c.obj
 *fill*         0x1000b7ce        0x2 
 .rodata.__func__.6858
                0x1000b7d0       0x13 CMakeFiles/fm_example.dir/home/pi/pico/pico-sdk/lib/tinyusb/src/portable/raspberrypi/rp2040/dcd_rp2040.c.obj
 *fill*         0x1000b7e3        0x1 
 .rodata.__func__.6879
                0x1000b7e4        0x9 CMakeFiles/fm_example.dir/home/pi/pico/pico-sdk/lib/tinyusb/src/portable/raspberrypi/rp2040/dcd_rp2040.c.obj
 *fill*         0x1000b7ed        0x3 
 .rodata.__func__.6883
                0x1000b7f0        0xf CMakeFiles/fm_example.dir/home/pi/pico/pico-sdk/lib/tinyusb/src/portable/raspberrypi/rp2040/dcd_rp2040.c.obj
 *fill*         0x1000b7ff        0x1 
 .rodata.__func__.6892
                0x1000b800       0x10 CMakeFiles/fm_example.dir/home/pi/pico/pico-sdk/lib/tinyusb/src/portable/raspberrypi/rp2040/dcd_rp2040.c.obj
 .rodata.__func__.6904
                0x1000b810        0xc CMakeFiles/fm_example.dir/home/pi/pico/pico-sdk/lib/tinyusb/src/portable/raspberrypi/rp2040/dcd_rp2040.c.obj
 .rodata.__func__.6909
                0x1000b81c       0x1a CMakeFiles/fm_example.dir/home/pi/pico/pico-sdk/lib/tinyusb/src/portable/raspberrypi/rp2040/dcd_rp2040.c.obj
 *fill*         0x1000b836        0x2 
 .rodata.__func__.6914
                0x1000b838        0xe CMakeFiles/fm_example.dir/home/pi/pico/pico-sdk/lib/tinyusb/src/portable/raspberrypi/rp2040/dcd_rp2040.c.obj
 *fill*         0x1000b846        0x2 
 .rodata.__func__.6921
                0x1000b848        0xe CMakeFiles/fm_example.dir/home/pi/pico/pico-sdk/lib/tinyusb/src/portable/raspberrypi/rp2040/dcd_rp2040.c.obj
 *fill*         0x1000b856        0x2 
 .rodata.__func__.6926
                0x1000b858        0xf CMakeFiles/fm_example.dir/home/pi/pico/pico-sdk/lib/tinyusb/src/portable/raspberrypi/rp2040/dcd_rp2040.c.obj
 *fill*         0x1000b867        0x1 
 .rodata.__func__.6931
                0x1000b868       0x15 CMakeFiles/fm_example.dir/home/pi/pico/pico-sdk/lib/tinyusb/src/portable/raspberrypi/rp2040/dcd_rp2040.c.obj
 *fill*         0x1000b87d        0x3 
 .rodata._hw_endpoint_alloc.str1.4
                0x1000b880       0xb1 CMakeFiles/fm_example.dir/home/pi/pico/pico-sdk/lib/tinyusb/src/portable/raspberrypi/rp2040/dcd_rp2040.c.obj
 *fill*         0x1000b931        0x3 
 .rodata._hw_endpoint_init.str1.4
                0x1000b934       0x28 CMakeFiles/fm_example.dir/home/pi/pico/pico-sdk/lib/tinyusb/src/portable/raspberrypi/rp2040/dcd_rp2040.c.obj
 .rodata._hw_endpoint_stall.str1.4
                0x1000b95c        0xd CMakeFiles/fm_example.dir/home/pi/pico/pico-sdk/lib/tinyusb/src/portable/raspberrypi/rp2040/dcd_rp2040.c.obj
 *fill*         0x1000b969        0x3 
 .rodata.dcd_int_enable.str1.4
                0x1000b96c        0xc CMakeFiles/fm_example.dir/home/pi/pico/pico-sdk/lib/tinyusb/src/portable/raspberrypi/rp2040/dcd_rp2040.c.obj
 .rodata.dcd_rp2040_irq.str1.4
                0x1000b978       0x14 CMakeFiles/fm_example.dir/home/pi/pico/pico-sdk/lib/tinyusb/src/portable/raspberrypi/rp2040/dcd_rp2040.c.obj
 .rodata.hw_handle_buff_status.str1.4
                0x1000b98c        0xb CMakeFiles/fm_example.dir/home/pi/pico/pico-sdk/lib/tinyusb/src/portable/raspberrypi/rp2040/dcd_rp2040.c.obj
 *fill*         0x1000b997        0x1 
 .rodata.__func__.6585
                0x1000b998       0x17 CMakeFiles/fm_example.dir/home/pi/pico/pico-sdk/lib/tinyusb/src/portable/raspberrypi/rp2040/rp2040_usb.c.obj
 *fill*         0x1000b9af        0x1 
 .rodata.__func__.6596
                0x1000b9b0       0x12 CMakeFiles/fm_example.dir/home/pi/pico/pico-sdk/lib/tinyusb/src/portable/raspberrypi/rp2040/rp2040_usb.c.obj
 *fill*         0x1000b9c2        0x2 
 .rodata._hw_endpoint_buffer_control_update32.str1.4
                0x1000b9c4       0x1f CMakeFiles/fm_example.dir/home/pi/pico/pico-sdk/lib/tinyusb/src/portable/raspberrypi/rp2040/rp2040_usb.c.obj
 *fill*         0x1000b9e3        0x1 
 .rodata._hw_endpoint_xfer.str1.4
                0x1000b9e4        0xf CMakeFiles/fm_example.dir/home/pi/pico/pico-sdk/lib/tinyusb/src/portable/raspberrypi/rp2040/rp2040_usb.c.obj
 *fill*         0x1000b9f3        0x1 
 .rodata._hw_endpoint_xfer_continue.str1.4
                0x1000b9f4       0x50 CMakeFiles/fm_example.dir/home/pi/pico/pico-sdk/lib/tinyusb/src/portable/raspberrypi/rp2040/rp2040_usb.c.obj
 .rodata._hw_endpoint_xfer_sync.str1.4
                0x1000ba44       0x8d CMakeFiles/fm_example.dir/home/pi/pico/pico-sdk/lib/tinyusb/src/portable/raspberrypi/rp2040/rp2040_usb.c.obj
 .rodata.str1.4
                0x1000bad1       0x8d CMakeFiles/fm_example.dir/home/pi/pico/pico-sdk/lib/tinyusb/src/portable/raspberrypi/rp2040/rp2040_usb.c.obj
                                  0x7 (size before relaxing)
 *fill*         0x1000bad1        0x3 
 .rodata.process_get_descriptor
                0x1000bad4       0x40 CMakeFiles/fm_example.dir/home/pi/pico/pico-sdk/lib/tinyusb/src/device/usbd.c.obj
 .rodata.process_control_request
                0x1000bb14       0x28 CMakeFiles/fm_example.dir/home/pi/pico/pico-sdk/lib/tinyusb/src/device/usbd.c.obj
 .rodata.tud_task
                0x1000bb3c       0x24 CMakeFiles/fm_example.dir/home/pi/pico/pico-sdk/lib/tinyusb/src/device/usbd.c.obj
 .rodata.__func__.6459
                0x1000bb60       0x10 CMakeFiles/fm_example.dir/home/pi/pico/pico-sdk/lib/tinyusb/src/device/usbd.c.obj
 .rodata.__func__.7252
                0x1000bb70        0x9 CMakeFiles/fm_example.dir/home/pi/pico/pico-sdk/lib/tinyusb/src/device/usbd.c.obj
 *fill*         0x1000bb79        0x3 
 .rodata.__func__.7273
                0x1000bb7c       0x18 CMakeFiles/fm_example.dir/home/pi/pico/pico-sdk/lib/tinyusb/src/device/usbd.c.obj
 .rodata.__func__.7311
                0x1000bb94       0x13 CMakeFiles/fm_example.dir/home/pi/pico/pico-sdk/lib/tinyusb/src/device/usbd.c.obj
 *fill*         0x1000bba7        0x1 
 .rodata.__func__.7354
                0x1000bba8       0x17 CMakeFiles/fm_example.dir/home/pi/pico/pico-sdk/lib/tinyusb/src/device/usbd.c.obj
 *fill*         0x1000bbbf        0x1 
 .rodata.__func__.7408
                0x1000bbc0       0x14 CMakeFiles/fm_example.dir/home/pi/pico/pico-sdk/lib/tinyusb/src/device/usbd.c.obj
 .rodata.__func__.7424
                0x1000bbd4        0xf CMakeFiles/fm_example.dir/home/pi/pico/pico-sdk/lib/tinyusb/src/device/usbd.c.obj
 *fill*         0x1000bbe3        0x1 
 .rodata.__func__.7452
                0x1000bbe4        0xf CMakeFiles/fm_example.dir/home/pi/pico/pico-sdk/lib/tinyusb/src/device/usbd.c.obj
 *fill*         0x1000bbf3        0x1 
 .rodata._usbd_driver
                0x1000bbf4       0x18 CMakeFiles/fm_example.dir/home/pi/pico/pico-sdk/lib/tinyusb/src/device/usbd.c.obj
 .rodata.process_set_config.str1.4
                0x1000bc0c       0x17 CMakeFiles/fm_example.dir/home/pi/pico/pico-sdk/lib/tinyusb/src/device/usbd.c.obj
 *fill*         0x1000bc23        0x1 
 .rodata.__func__.7165
                0x1000bc24       0x11 CMakeFiles/fm_example.dir/home/pi/pico/pico-sdk/lib/tinyusb/src/device/usbd_control.c.obj
 *fill*         0x1000bc35        0x3 
 .rodata.__func__.7192
                0x1000bc38       0x15 CMakeFiles/fm_example.dir/home/pi/pico/pico-sdk/lib/tinyusb/src/device/usbd_control.c.obj
 .rodata.tud_control_xfer.str1.4
                0x1000bc4d       0x17 CMakeFiles/fm_example.dir/home/pi/pico/pico-sdk/lib/tinyusb/src/device/usbd_control.c.obj
 *fill*         0x1000bc4d        0x3 
 .rodata.__func__.7104
                0x1000bc50       0x16 CMakeFiles/fm_example.dir/home/pi/pico/pico-sdk/lib/tinyusb/src/class/cdc/cdc_device.c.obj
 *fill*         0x1000bc66        0x2 
 .rodata.__func__.7137
                0x1000bc68        0xa CMakeFiles/fm_example.dir/home/pi/pico/pico-sdk/lib/tinyusb/src/class/cdc/cdc_device.c.obj
 *fill*         0x1000bc72        0x2 
 .rodata.__func__.7171
                0x1000bc74        0xd CMakeFiles/fm_example.dir/home/pi/pico/pico-sdk/lib/tinyusb/src/class/cdc/cdc_device.c.obj
 .rodata.tud_cdc_n_write_flush.str1.4
                0x1000bc81       0x17 CMakeFiles/fm_example.dir/home/pi/pico/pico-sdk/lib/tinyusb/src/class/cdc/cdc_device.c.obj
 *fill*         0x1000bc81        0x3 
 .rodata.__func__.7041
                0x1000bc84        0xa CMakeFiles/fm_example.dir/home/pi/pico/pico-sdk/lib/tinyusb/src/tusb.c.obj
 .rodata.tusb_init.str1.4
                0x1000bc8e       0x17 CMakeFiles/fm_example.dir/home/pi/pico/pico-sdk/lib/tinyusb/src/tusb.c.obj
 *fill*         0x1000bc8e        0x2 
 .rodata.__func__.4247
                0x1000bc90       0x20 CMakeFiles/fm_example.dir/home/pi/pico/pico-sdk/src/rp2_common/pico_unique_id/unique_id.c.obj
 .rodata.pico_get_unique_board_id_string.str1.4
                0x1000bcb0       0x49 CMakeFiles/fm_example.dir/home/pi/pico/pico-sdk/src/rp2_common/pico_unique_id/unique_id.c.obj
 *fill*         0x1000bcf9        0x3 
 .rodata.__func__.4388
                0x1000bcfc        0xd CMakeFiles/fm_example.dir/home/pi/pico/pico-sdk/src/rp2_common/hardware_flash/flash.c.obj
 *fill*         0x1000bd09        0x3 
 .rodata.str1.4
                0x1000bd0c      0x158 CMakeFiles/fm_example.dir/home/pi/pico/pico-sdk/src/rp2_common/hardware_flash/flash.c.obj
                                0x156 (size before relaxing)
 .rodata.oled128_initbuf
                0x1000be64       0x16 CMakeFiles/fm_example.dir/pico-ss-oled/ss_oled.c.obj
                0x1000be64                oled128_initbuf
 *fill*         0x1000be7a        0x2 
 .rodata.oled32_initbuf
                0x1000be7c       0x18 CMakeFiles/fm_example.dir/pico-ss-oled/ss_oled.c.obj
                0x1000be7c                oled32_initbuf
 .rodata.oled64_initbuf
                0x1000be94       0x16 CMakeFiles/fm_example.dir/pico-ss-oled/ss_oled.c.obj
                0x1000be94                oled64_initbuf
 *fill*         0x1000beaa        0x2 
 .rodata.oled72_initbuf
                0x1000beac       0x1a CMakeFiles/fm_example.dir/pico-ss-oled/ss_oled.c.obj
                0x1000beac                oled72_initbuf
 *fill*         0x1000bec6        0x2 
 .rodata.ucBigFont
                0x1000bec8     0x1800 CMakeFiles/fm_example.dir/pico-ss-oled/ss_oled.c.obj
                0x1000bec8                ucBigFont
 .rodata.ucFont
                0x1000d6c8      0x2a0 CMakeFiles/fm_example.dir/pico-ss-oled/ss_oled.c.obj
                0x1000d6c8                ucFont
 .rodata.ucSmallFont
                0x1000d968      0x1e0 CMakeFiles/fm_example.dir/pico-ss-oled/ss_oled.c.obj
                0x1000d968                ucSmallFont
                0x1000db48                . = ALIGN (0x4)
 *(SORT_BY_ALIGNMENT(SORT_BY_NAME(.flashdata*)))
                0x1000db48                . = ALIGN (0x4)

.rel.dyn        0x1000db48        0x0
 .rel.iplt      0x1000db48        0x0 /usr/lib/gcc/arm-none-eabi/7.3.1/thumb/v6-m/crtbegin.o

.ARM.extab
 *(.ARM.extab* .gnu.linkonce.armextab.*)
                0x1000db48                __exidx_start = .

.ARM.exidx
 *(.ARM.exidx* .gnu.linkonce.armexidx.*)
                0x1000db48                __exidx_end = .
                0x1000db48                . = ALIGN (0x4)
                0x1000db48                __binary_info_start = .

.binary_info    0x1000db48       0x28
 *(.binary_info.keep.*)
 .binary_info.keep.__bi_ptr22
                0x1000db48        0x4 CMakeFiles/fm_example.dir/home/pi/pico/pico-sdk/src/rp2_common/pico_standard_link/binary_info.c.obj
 .binary_info.keep.__bi_ptr30
                0x1000db4c        0x4 CMakeFiles/fm_example.dir/home/pi/pico/pico-sdk/src/rp2_common/pico_standard_link/binary_info.c.obj
 .binary_info.keep.__bi_ptr38
                0x1000db50        0x4 CMakeFiles/fm_example.dir/home/pi/pico/pico-sdk/src/rp2_common/pico_standard_link/binary_info.c.obj
 .binary_info.keep.__bi_ptr44
                0x1000db54        0x4 CMakeFiles/fm_example.dir/home/pi/pico/pico-sdk/src/rp2_common/pico_standard_link/binary_info.c.obj
 .binary_info.keep.__bi_ptr50
                0x1000db58        0x4 CMakeFiles/fm_example.dir/home/pi/pico/pico-sdk/src/rp2_common/pico_standard_link/binary_info.c.obj
 .binary_info.keep.__bi_ptr75
                0x1000db5c        0x4 CMakeFiles/fm_example.dir/home/pi/pico/pico-sdk/src/rp2_common/pico_standard_link/binary_info.c.obj
 .binary_info.keep.__bi_ptr81
                0x1000db60        0x4 CMakeFiles/fm_example.dir/home/pi/pico/pico-sdk/src/rp2_common/pico_standard_link/binary_info.c.obj
 *(.binary_info.*)
 .binary_info.__bi_ptr28
                0x1000db64        0x4 CMakeFiles/fm_example.dir/home/pi/pico/pico-sdk/src/rp2_common/pico_stdio_uart/stdio_uart.c.obj
 .binary_info.__bi_ptr29
                0x1000db68        0x4 CMakeFiles/fm_example.dir/home/pi/pico/pico-sdk/src/rp2_common/pico_stdio_uart/stdio_uart.c.obj
 .binary_info.__bi_ptr93
                0x1000db6c        0x4 CMakeFiles/fm_example.dir/home/pi/pico/pico-sdk/src/rp2_common/pico_stdio_usb/stdio_usb.c.obj
                0x1000db70                __binary_info_end = .
                0x1000db70                . = ALIGN (0x4)
                0x1000db70                __etext = .

.ram_vector_table
                0x20000000       0xc0
 *(.ram_vector_table)
 .ram_vector_table
                0x20000000       0xc0 CMakeFiles/fm_example.dir/home/pi/pico/pico-sdk/src/rp2_common/pico_runtime/runtime.c.obj
                0x20000000                ram_vector_table

.data           0x200000c0      0x518 load address 0x1000db70
                0x200000c0                __data_start__ = .
 *(vtable)
 *(.time_critical*)
 .time_critical.mutex_enter_blocking
                0x200000c0       0x94 CMakeFiles/fm_example.dir/home/pi/pico/pico-sdk/src/common/pico_sync/mutex.c.obj
                0x200000c0                mutex_enter_blocking
 .time_critical.mutex_try_enter
                0x20000154       0x5a CMakeFiles/fm_example.dir/home/pi/pico/pico-sdk/src/common/pico_sync/mutex.c.obj
                0x20000154                mutex_try_enter
 *fill*         0x200001ae        0x2 
 .time_critical.mutex_enter_block_until
                0x200001b0       0x8c CMakeFiles/fm_example.dir/home/pi/pico/pico-sdk/src/common/pico_sync/mutex.c.obj
                0x200001b0                mutex_enter_block_until
 .time_critical.mutex_enter_timeout_ms
                0x2000023c       0x6c CMakeFiles/fm_example.dir/home/pi/pico/pico-sdk/src/common/pico_sync/mutex.c.obj
                0x2000023c                mutex_enter_timeout_ms
 .time_critical.mutex_exit
                0x200002a8       0x94 CMakeFiles/fm_example.dir/home/pi/pico/pico-sdk/src/common/pico_sync/mutex.c.obj
                0x200002a8                mutex_exit
 .time_critical.flash_init_boot2_copyout
                0x2000033c       0x30 CMakeFiles/fm_example.dir/home/pi/pico/pico-sdk/src/rp2_common/hardware_flash/flash.c.obj
 .time_critical.flash_enable_xip_via_boot2
                0x2000036c       0x10 CMakeFiles/fm_example.dir/home/pi/pico/pico-sdk/src/rp2_common/hardware_flash/flash.c.obj
 .time_critical.flash_cs_force
                0x2000037c       0x28 CMakeFiles/fm_example.dir/home/pi/pico/pico-sdk/src/rp2_common/hardware_flash/flash.c.obj
 .time_critical.flash_do_cmd
                0x200003a4       0xc0 CMakeFiles/fm_example.dir/home/pi/pico/pico-sdk/src/rp2_common/hardware_flash/flash.c.obj
                0x200003a4                flash_do_cmd
 *(.text*)
 .text          0x20000464        0x4 /usr/lib/gcc/arm-none-eabi/7.3.1/thumb/v6-m/libgcc.a(_dvmd_tls.o)
                0x20000464                __aeabi_ldiv0
                0x20000464                __aeabi_idiv0
 .text.__stub   0x20000468       0x50 linker stubs
                0x200004b8                . = ALIGN (0x4)
 *(.rodata*)
                0x200004b8                . = ALIGN (0x4)
 *(.data*)
 .data.i2c0_inst
                0x200004b8        0x8 CMakeFiles/fm_example.dir/home/pi/pico/pico-sdk/src/rp2_common/hardware_i2c/i2c.c.obj
                0x200004b8                i2c0_inst
 .data.i2c1_inst
                0x200004c0        0x8 CMakeFiles/fm_example.dir/home/pi/pico/pico-sdk/src/rp2_common/hardware_i2c/i2c.c.obj
                0x200004c0                i2c1_inst
 .data.striped_spin_lock_num
                0x200004c8        0x1 CMakeFiles/fm_example.dir/home/pi/pico/pico-sdk/src/rp2_common/hardware_sync/sync.c.obj
 *fill*         0x200004c9        0x3 
 .data.default_alarm_pool
                0x200004cc       0x18 CMakeFiles/fm_example.dir/home/pi/pico/pico-sdk/src/common/pico_time/time.c.obj
 .data.default_alarm_pool_heap
                0x200004e4       0x10 CMakeFiles/fm_example.dir/home/pi/pico/pico-sdk/src/common/pico_time/time.c.obj
 .data          0x200004f4       0x48 CMakeFiles/fm_example.dir/home/pi/pico/pico-sdk/src/rp2_common/hardware_irq/irq_handler_chain.S.obj
                0x200004f4                irq_handler_chain_slots
                0x20000524                irq_handler_chain_first_slot
                0x2000052e                irq_handler_chain_remove_tail
 *fill*         0x2000053c        0x4 
 .data.aeabi_bits_funcs
                0x20000540       0x10 CMakeFiles/fm_example.dir/home/pi/pico/pico-sdk/src/rp2_common/pico_bit_ops/bit_ops_aeabi.S.obj
                0x20000540                aeabi_bits_funcs
                0x20000550                aeabi_bits_funcs_end
 .data.aeabi_mem_funcs
                0x20000550       0x10 CMakeFiles/fm_example.dir/home/pi/pico/pico-sdk/src/rp2_common/pico_mem_ops/mem_ops_aeabi.S.obj
                0x20000550                aeabi_mem_funcs
                0x20000560                aeabi_mem_funcs_end
 .data.stdio_uart
                0x20000560       0x14 CMakeFiles/fm_example.dir/home/pi/pico/pico-sdk/src/rp2_common/pico_stdio_uart/stdio_uart.c.obj
                0x20000560                stdio_uart
 .data.stdio_usb
                0x20000574       0x14 CMakeFiles/fm_example.dir/home/pi/pico/pico-sdk/src/rp2_common/pico_stdio_usb/stdio_usb.c.obj
                0x20000574                stdio_usb
 .data.ep_dir_string
                0x20000588        0x8 CMakeFiles/fm_example.dir/home/pi/pico/pico-sdk/lib/tinyusb/src/portable/raspberrypi/rp2040/rp2040_usb.c.obj
                0x20000588                ep_dir_string
 .data._usbd_qdef
                0x20000590       0x24 CMakeFiles/fm_example.dir/home/pi/pico/pico-sdk/lib/tinyusb/src/device/usbd.c.obj
                0x20000590                _usbd_qdef
                0x200005b4                . = ALIGN (0x4)
 *(.after_data.*)
                0x200005b4                . = ALIGN (0x4)
                0x200005b4                PROVIDE (__mutex_array_start = .)
 *(SORT_BY_NAME(.mutex_array.*))
 *(.mutex_array)
 .mutex_array   0x200005b4        0x8 CMakeFiles/fm_example.dir/home/pi/pico/pico-sdk/src/rp2_common/pico_stdio/stdio.c.obj
                0x200005bc                PROVIDE (__mutex_array_end = .)
                0x200005bc                . = ALIGN (0x4)
                0x200005bc                PROVIDE (__preinit_array_start = .)
 *(SORT_BY_NAME(.preinit_array.*))
 .preinit_array.00001
                0x200005bc        0x4 CMakeFiles/fm_example.dir/home/pi/pico/pico-sdk/src/rp2_common/pico_mem_ops/mem_ops_aeabi.S.obj
 .preinit_array.00010
                0x200005c0        0x4 CMakeFiles/fm_example.dir/home/pi/pico/pico-sdk/src/rp2_common/pico_bit_ops/bit_ops_aeabi.S.obj
 .preinit_array.00020
                0x200005c4        0x4 CMakeFiles/fm_example.dir/home/pi/pico/pico-sdk/src/rp2_common/pico_double/double_aeabi.S.obj
 .preinit_array.00020
                0x200005c8        0x4 CMakeFiles/fm_example.dir/home/pi/pico/pico-sdk/src/rp2_common/pico_float/float_aeabi.S.obj
 *(.preinit_array)
                0x200005cc                PROVIDE (__preinit_array_end = .)
                0x200005cc                . = ALIGN (0x4)
                0x200005cc                PROVIDE (__init_array_start = .)
 *(SORT_BY_NAME(.init_array.*))
 *(.init_array)
 .init_array    0x200005cc        0x4 /usr/lib/gcc/arm-none-eabi/7.3.1/thumb/v6-m/crtbegin.o
 .init_array    0x200005d0        0x4 CMakeFiles/fm_example.dir/fm_example.cpp.obj
 .init_array    0x200005d4        0x4 CMakeFiles/fm_example.dir/home/pi/pico/pico-sdk/src/rp2_common/pico_unique_id/unique_id.c.obj
                0x200005d8                PROVIDE (__init_array_end = .)
                0x200005d8                . = ALIGN (0x4)
                0x200005d8                PROVIDE (__fini_array_start = .)
 *(SORT_BY_NAME(.fini_array.*))
 *(.fini_array)
                0x200005d8                PROVIDE (__fini_array_end = .)
 *(.jcr)
                0x200005d8                . = ALIGN (0x4)
                0x200005d8                __data_end__ = .

.tm_clone_table
                0x200005d8        0x0 load address 0x1000e088
 .tm_clone_table
                0x200005d8        0x0 /usr/lib/gcc/arm-none-eabi/7.3.1/thumb/v6-m/crtbegin.o
 .tm_clone_table
                0x200005d8        0x0 /usr/lib/gcc/arm-none-eabi/7.3.1/thumb/v6-m/crtend.o

.igot.plt       0x200005d8        0x0 load address 0x1000e088
 .igot.plt      0x200005d8        0x0 /usr/lib/gcc/arm-none-eabi/7.3.1/thumb/v6-m/crtbegin.o

.uninitialized_data
                0x200005d8        0x0 load address 0x1000e088
                0x200005d8                . = ALIGN (0x4)
 *(.uninitialized_data*)

.scratch_x      0x20040000        0x0 load address 0x1000e088
                0x20040000                __scratch_x_start__ = .
 *(.scratch_x.*)
                0x20040000                . = ALIGN (0x4)
                0x20040000                __scratch_x_end__ = .
                0x1000e088                __scratch_x_source__ = LOADADDR (.scratch_x)

.scratch_y      0x20041000        0x0 load address 0x1000e088
                0x20041000                __scratch_y_start__ = .
 *(.scratch_y.*)
                0x20041000                . = ALIGN (0x4)
                0x20041000                __scratch_y_end__ = .
                0x1000e088                __scratch_y_source__ = LOADADDR (.scratch_y)

.bss            0x200005d8     0x129c
                0x200005d8                . = ALIGN (0x4)
                0x200005d8                __bss_start__ = .
 *(SORT_BY_ALIGNMENT(SORT_BY_NAME(.bss*)))
 .bss._ZL5radio
                0x200005d8       0x58 CMakeFiles/fm_example.dir/fm_example.cpp.obj
 .bss.default_alarm_pool_entries
                0x20000630      0x100 CMakeFiles/fm_example.dir/home/pi/pico/pico-sdk/src/common/pico_time/time.c.obj
 .bss.last_avail_time.7080
                0x20000730        0x8 CMakeFiles/fm_example.dir/home/pi/pico/pico-sdk/src/rp2_common/pico_stdio_usb/stdio_usb.c.obj
 .bss           0x20000738       0x1c /usr/lib/gcc/arm-none-eabi/7.3.1/thumb/v6-m/crtbegin.o
 .bss._ZL10rds_parser
                0x20000754       0xb8 CMakeFiles/fm_example.dir/fm_example.cpp.obj
 .bss._ZL8ucBuffer
                0x2000080c      0x400 CMakeFiles/fm_example.dir/fm_example.cpp.obj
 .bss._app_driver
                0x20000c0c        0x4 CMakeFiles/fm_example.dir/home/pi/pico/pico-sdk/lib/tinyusb/src/device/usbd.c.obj
 .bss._cdcd_itf
                0x20000c10      0x2d8 CMakeFiles/fm_example.dir/home/pi/pico/pico-sdk/lib/tinyusb/src/class/cdc/cdc_device.c.obj
 .bss._ctrl_xfer
                0x20000ee8       0x14 CMakeFiles/fm_example.dir/home/pi/pico/pico-sdk/lib/tinyusb/src/device/usbd_control.c.obj
 .bss._ubsd_mutexdef
                0x20000efc        0x8 CMakeFiles/fm_example.dir/home/pi/pico/pico-sdk/lib/tinyusb/src/device/usbd.c.obj
 .bss._usbd_ctrl_buf
                0x20000f04       0x40 CMakeFiles/fm_example.dir/home/pi/pico/pico-sdk/lib/tinyusb/src/device/usbd_control.c.obj
 .bss._usbd_dev
                0x20000f44       0x37 CMakeFiles/fm_example.dir/home/pi/pico/pico-sdk/lib/tinyusb/src/device/usbd.c.obj
 *fill*         0x20000f7b        0x1 
 .bss._usbd_mutex
                0x20000f7c        0x4 CMakeFiles/fm_example.dir/home/pi/pico/pico-sdk/lib/tinyusb/src/device/usbd.c.obj
 .bss._usbd_q   0x20000f80        0x4 CMakeFiles/fm_example.dir/home/pi/pico/pico-sdk/lib/tinyusb/src/device/usbd.c.obj
 .bss.alarm_callbacks
                0x20000f84       0x10 CMakeFiles/fm_example.dir/home/pi/pico/pico-sdk/src/rp2_common/hardware_timer/timer.c.obj
 .bss.boot2_copyout
                0x20000f94      0x100 CMakeFiles/fm_example.dir/home/pi/pico/pico-sdk/src/rp2_common/hardware_flash/flash.c.obj
 .bss.claimed   0x20001094        0x4 CMakeFiles/fm_example.dir/home/pi/pico/pico-sdk/src/rp2_common/hardware_sync/sync.c.obj
 .bss.configured_freq
                0x20001098       0x28 CMakeFiles/fm_example.dir/home/pi/pico/pico-sdk/src/rp2_common/hardware_clocks/clocks.c.obj
 .bss.default_alarm_pool_entry_ids_high
                0x200010c0       0x10 CMakeFiles/fm_example.dir/home/pi/pico/pico-sdk/src/common/pico_time/time.c.obj
 .bss.default_alarm_pool_heap_nodes
                0x200010d0       0x30 CMakeFiles/fm_example.dir/home/pi/pico/pico-sdk/src/common/pico_time/time.c.obj
 .bss.desc_str.6984
                0x20001100       0x28 CMakeFiles/fm_example.dir/home/pi/pico/pico-sdk/src/rp2_common/pico_stdio_usb/stdio_usb_descriptors.c.obj
 .bss.drivers   0x20001128        0x4 CMakeFiles/fm_example.dir/home/pi/pico/pico-sdk/src/rp2_common/pico_stdio/stdio.c.obj
 .bss.filter    0x2000112c        0x4 CMakeFiles/fm_example.dir/home/pi/pico/pico-sdk/src/rp2_common/pico_stdio/stdio.c.obj
 .bss.hw_endpoints
                0x20001130      0x400 CMakeFiles/fm_example.dir/home/pi/pico/pico-sdk/lib/tinyusb/src/portable/raspberrypi/rp2040/dcd_rp2040.c.obj
 .bss.load_value
                0x20001530        0x4 CMakeFiles/fm_example.dir/home/pi/pico/pico-sdk/src/rp2_common/hardware_watchdog/watchdog.c.obj
 .bss.myOled    0x20001534       0x20 CMakeFiles/fm_example.dir/fm_example.cpp.obj
                0x20001534                myOled
 .bss.next_buffer_ptr
                0x20001554        0x4 CMakeFiles/fm_example.dir/home/pi/pico/pico-sdk/lib/tinyusb/src/portable/raspberrypi/rp2040/dcd_rp2040.c.obj
 .bss.pools     0x20001558       0x10 CMakeFiles/fm_example.dir/home/pi/pico/pico-sdk/src/common/pico_time/time.c.obj
 .bss.retrieved_id
                0x20001568        0x8 CMakeFiles/fm_example.dir/home/pi/pico/pico-sdk/src/rp2_common/pico_unique_id/unique_id.c.obj
 .bss.sleep_notifier
                0x20001570        0x4 CMakeFiles/fm_example.dir/home/pi/pico/pico-sdk/src/common/pico_time/time.c.obj
 .bss.stdio_usb_mutex
                0x20001574        0x8 CMakeFiles/fm_example.dir/home/pi/pico/pico-sdk/src/rp2_common/pico_stdio_usb/stdio_usb.c.obj
 .bss.target_hi
                0x2000157c       0x10 CMakeFiles/fm_example.dir/home/pi/pico/pico-sdk/src/rp2_common/hardware_timer/timer.c.obj
 .bss.uart_instance
                0x2000158c        0x4 CMakeFiles/fm_example.dir/home/pi/pico/pico-sdk/src/rp2_common/pico_stdio_uart/stdio_uart.c.obj
 .bss.usbd_serial_str
                0x20001590       0x11 CMakeFiles/fm_example.dir/home/pi/pico/pico-sdk/src/rp2_common/pico_stdio_usb/stdio_usb_descriptors.c.obj
 .bss._app_driver_count
                0x200015a1        0x1 CMakeFiles/fm_example.dir/home/pi/pico/pico-sdk/lib/tinyusb/src/device/usbd.c.obj
 .bss._usbd_initialized
                0x200015a2        0x1 CMakeFiles/fm_example.dir/home/pi/pico/pico-sdk/lib/tinyusb/src/device/usbd.c.obj
 .bss.boot2_copyout_valid
                0x200015a3        0x1 CMakeFiles/fm_example.dir/home/pi/pico/pico-sdk/src/rp2_common/hardware_flash/flash.c.obj
 .bss.btn_press_delay
                0x200015a4        0x1 CMakeFiles/fm_example.dir/fm_example.cpp.obj
                0x200015a4                btn_press_delay
 .bss.btn_pressed
                0x200015a5        0x1 CMakeFiles/fm_example.dir/fm_example.cpp.obj
                0x200015a5                btn_pressed
 .bss.claimed   0x200015a6        0x1 CMakeFiles/fm_example.dir/home/pi/pico/pico-sdk/src/rp2_common/hardware_timer/timer.c.obj
 .bss.irq_hander_chain_free_slot_head
                0x200015a7        0x1 CMakeFiles/fm_example.dir/home/pi/pico/pico-sdk/src/rp2_common/hardware_irq/irq.c.obj
 .bss.itf_num   0x200015a8        0x1 CMakeFiles/fm_example.dir/home/pi/pico/pico-sdk/src/rp2_common/pico_stdio_usb/reset_interface.c.obj
 .bss.timer_callbacks_pending
                0x200015a9        0x1 CMakeFiles/fm_example.dir/home/pi/pico/pico-sdk/src/rp2_common/hardware_timer/timer.c.obj
 .bss.volume_control
                0x200015aa        0x1 CMakeFiles/fm_example.dir/fm_example.cpp.obj
                0x200015aa                volume_control
 *(COMMON)
 *fill*         0x200015ab        0x1 
 COMMON         0x200015ac        0x4 CMakeFiles/fm_example.dir/home/pi/pico/pico-sdk/src/rp2_common/hardware_uart/uart.c.obj
                0x200015ac                uart_char_to_line_feed
 COMMON         0x200015b0      0x100 CMakeFiles/fm_example.dir/home/pi/pico/pico-sdk/src/rp2_common/pico_double/double_init_rom.c.obj
                0x200015b0                sd_table
 COMMON         0x200016b0      0x104 CMakeFiles/fm_example.dir/home/pi/pico/pico-sdk/src/rp2_common/pico_float/float_init_rom.c.obj
                0x200016b0                sf_table
                0x200017b0                sf_clz_func
 COMMON         0x200017b4       0xc0 CMakeFiles/fm_example.dir/home/pi/pico/pico-sdk/lib/tinyusb/src/device/usbd.c.obj
                0x200017b4                _usbd_qdef_buf
                0x20001874                . = ALIGN (0x4)
                0x20001874                __bss_end__ = .

.heap           0x20001874      0x800
                0x20001874                __end__ = .
                0x20001874                end = __end__
 *(.heap*)
 .heap          0x20001874      0x800 CMakeFiles/fm_example.dir/home/pi/pico/pico-sdk/src/rp2_common/pico_standard_link/crt0.S.obj
                0x20002074                __HeapLimit = .

.stack1_dummy   0x20040000        0x0
 *(.stack1*)

.stack_dummy    0x20041000      0x800
 *(.stack*)
 .stack         0x20041000      0x800 CMakeFiles/fm_example.dir/home/pi/pico/pico-sdk/src/rp2_common/pico_standard_link/crt0.S.obj

.flash_end      0x1000e088        0x0
                0x1000e088                __flash_binary_end = .
                0x20040000                __StackLimit = (ORIGIN (RAM) + LENGTH (RAM))
                0x20041000                __StackOneTop = (ORIGIN (SCRATCH_X) + LENGTH (SCRATCH_X))
                0x20042000                __StackTop = (ORIGIN (SCRATCH_Y) + LENGTH (SCRATCH_Y))
                0x20041000                __StackOneBottom = (__StackOneTop - SIZEOF (.stack1_dummy))
                0x20041800                __StackBottom = (__StackTop - SIZEOF (.stack_dummy))
                0x20042000                PROVIDE (__stack = __StackTop)
                0x00000001                ASSERT ((__StackLimit >= __HeapLimit), region RAM overflowed)
                0x00000001                ASSERT (((__binary_info_header_end - __logical_binary_start) <= 0x100), Binary info must be in first 256 bytes of the binary)
LOAD CMakeFiles/fm_example.dir/fm_example.cpp.obj
LOAD CMakeFiles/fm_example.dir/fm_rda5807/fm_rda5807.c.obj
LOAD CMakeFiles/fm_example.dir/home/pi/pico/pico-sdk/src/rp2_common/hardware_i2c/i2c.c.obj
LOAD CMakeFiles/fm_example.dir/home/pi/pico/pico-sdk/src/rp2_common/hardware_claim/claim.c.obj
LOAD CMakeFiles/fm_example.dir/home/pi/pico/pico-sdk/src/rp2_common/pico_platform/platform.c.obj
LOAD CMakeFiles/fm_example.dir/home/pi/pico/pico-sdk/src/rp2_common/hardware_sync/sync.c.obj
LOAD CMakeFiles/fm_example.dir/rds_parser/rds_parser.c.obj
LOAD CMakeFiles/fm_example.dir/home/pi/pico/pico-sdk/src/rp2_common/pico_stdlib/stdlib.c.obj
LOAD CMakeFiles/fm_example.dir/home/pi/pico/pico-sdk/src/rp2_common/hardware_gpio/gpio.c.obj
LOAD CMakeFiles/fm_example.dir/home/pi/pico/pico-sdk/src/rp2_common/hardware_uart/uart.c.obj
LOAD CMakeFiles/fm_example.dir/home/pi/pico/pico-sdk/src/rp2_common/hardware_divider/divider.S.obj
LOAD CMakeFiles/fm_example.dir/home/pi/pico/pico-sdk/src/common/pico_time/time.c.obj
LOAD CMakeFiles/fm_example.dir/home/pi/pico/pico-sdk/src/common/pico_time/timeout_helper.c.obj
LOAD CMakeFiles/fm_example.dir/home/pi/pico/pico-sdk/src/rp2_common/hardware_timer/timer.c.obj
LOAD CMakeFiles/fm_example.dir/home/pi/pico/pico-sdk/src/common/pico_sync/sem.c.obj
LOAD CMakeFiles/fm_example.dir/home/pi/pico/pico-sdk/src/common/pico_sync/lock_core.c.obj
LOAD CMakeFiles/fm_example.dir/home/pi/pico/pico-sdk/src/common/pico_sync/mutex.c.obj
LOAD CMakeFiles/fm_example.dir/home/pi/pico/pico-sdk/src/common/pico_sync/critical_section.c.obj
LOAD CMakeFiles/fm_example.dir/home/pi/pico/pico-sdk/src/common/pico_util/datetime.c.obj
LOAD CMakeFiles/fm_example.dir/home/pi/pico/pico-sdk/src/common/pico_util/pheap.c.obj
LOAD CMakeFiles/fm_example.dir/home/pi/pico/pico-sdk/src/common/pico_util/queue.c.obj
LOAD CMakeFiles/fm_example.dir/home/pi/pico/pico-sdk/src/rp2_common/pico_runtime/runtime.c.obj
LOAD CMakeFiles/fm_example.dir/home/pi/pico/pico-sdk/src/rp2_common/hardware_clocks/clocks.c.obj
LOAD CMakeFiles/fm_example.dir/home/pi/pico/pico-sdk/src/rp2_common/hardware_irq/irq.c.obj
LOAD CMakeFiles/fm_example.dir/home/pi/pico/pico-sdk/src/rp2_common/hardware_irq/irq_handler_chain.S.obj
LOAD CMakeFiles/fm_example.dir/home/pi/pico/pico-sdk/src/rp2_common/hardware_pll/pll.c.obj
LOAD CMakeFiles/fm_example.dir/home/pi/pico/pico-sdk/src/rp2_common/hardware_vreg/vreg.c.obj
LOAD CMakeFiles/fm_example.dir/home/pi/pico/pico-sdk/src/rp2_common/hardware_watchdog/watchdog.c.obj
LOAD CMakeFiles/fm_example.dir/home/pi/pico/pico-sdk/src/rp2_common/hardware_xosc/xosc.c.obj
LOAD CMakeFiles/fm_example.dir/home/pi/pico/pico-sdk/src/rp2_common/pico_printf/printf.c.obj
LOAD CMakeFiles/fm_example.dir/home/pi/pico/pico-sdk/src/rp2_common/pico_bit_ops/bit_ops_aeabi.S.obj
LOAD CMakeFiles/fm_example.dir/home/pi/pico/pico-sdk/src/rp2_common/pico_bootrom/bootrom.c.obj
LOAD CMakeFiles/fm_example.dir/home/pi/pico/pico-sdk/src/rp2_common/pico_divider/divider.S.obj
LOAD CMakeFiles/fm_example.dir/home/pi/pico/pico-sdk/src/rp2_common/pico_double/double_aeabi.S.obj
LOAD CMakeFiles/fm_example.dir/home/pi/pico/pico-sdk/src/rp2_common/pico_double/double_init_rom.c.obj
LOAD CMakeFiles/fm_example.dir/home/pi/pico/pico-sdk/src/rp2_common/pico_double/double_math.c.obj
LOAD CMakeFiles/fm_example.dir/home/pi/pico/pico-sdk/src/rp2_common/pico_double/double_v1_rom_shim.S.obj
LOAD CMakeFiles/fm_example.dir/home/pi/pico/pico-sdk/src/rp2_common/pico_int64_ops/pico_int64_ops_aeabi.S.obj
LOAD CMakeFiles/fm_example.dir/home/pi/pico/pico-sdk/src/rp2_common/pico_float/float_aeabi.S.obj
LOAD CMakeFiles/fm_example.dir/home/pi/pico/pico-sdk/src/rp2_common/pico_float/float_init_rom.c.obj
LOAD CMakeFiles/fm_example.dir/home/pi/pico/pico-sdk/src/rp2_common/pico_float/float_math.c.obj
LOAD CMakeFiles/fm_example.dir/home/pi/pico/pico-sdk/src/rp2_common/pico_float/float_v1_rom_shim.S.obj
LOAD CMakeFiles/fm_example.dir/home/pi/pico/pico-sdk/src/rp2_common/pico_malloc/pico_malloc.c.obj
LOAD CMakeFiles/fm_example.dir/home/pi/pico/pico-sdk/src/rp2_common/pico_mem_ops/mem_ops_aeabi.S.obj
LOAD CMakeFiles/fm_example.dir/home/pi/pico/pico-sdk/src/rp2_common/pico_standard_link/crt0.S.obj
LOAD CMakeFiles/fm_example.dir/home/pi/pico/pico-sdk/src/rp2_common/pico_standard_link/new_delete.cpp.obj
LOAD CMakeFiles/fm_example.dir/home/pi/pico/pico-sdk/src/rp2_common/pico_standard_link/binary_info.c.obj
LOAD CMakeFiles/fm_example.dir/home/pi/pico/pico-sdk/src/rp2_common/pico_stdio/stdio.c.obj
LOAD CMakeFiles/fm_example.dir/home/pi/pico/pico-sdk/src/rp2_common/pico_stdio_uart/stdio_uart.c.obj
LOAD CMakeFiles/fm_example.dir/home/pi/pico/pico-sdk/src/rp2_common/pico_stdio_usb/reset_interface.c.obj
LOAD CMakeFiles/fm_example.dir/home/pi/pico/pico-sdk/src/rp2_common/pico_stdio_usb/stdio_usb.c.obj
LOAD CMakeFiles/fm_example.dir/home/pi/pico/pico-sdk/src/rp2_common/pico_stdio_usb/stdio_usb_descriptors.c.obj
LOAD CMakeFiles/fm_example.dir/home/pi/pico/pico-sdk/lib/tinyusb/src/portable/raspberrypi/rp2040/dcd_rp2040.c.obj
LOAD CMakeFiles/fm_example.dir/home/pi/pico/pico-sdk/lib/tinyusb/src/portable/raspberrypi/rp2040/rp2040_usb.c.obj
LOAD CMakeFiles/fm_example.dir/home/pi/pico/pico-sdk/lib/tinyusb/src/device/usbd.c.obj
LOAD CMakeFiles/fm_example.dir/home/pi/pico/pico-sdk/lib/tinyusb/src/device/usbd_control.c.obj
LOAD CMakeFiles/fm_example.dir/home/pi/pico/pico-sdk/lib/tinyusb/src/class/audio/audio_device.c.obj
LOAD CMakeFiles/fm_example.dir/home/pi/pico/pico-sdk/lib/tinyusb/src/class/cdc/cdc_device.c.obj
LOAD CMakeFiles/fm_example.dir/home/pi/pico/pico-sdk/lib/tinyusb/src/class/dfu/dfu_device.c.obj
LOAD CMakeFiles/fm_example.dir/home/pi/pico/pico-sdk/lib/tinyusb/src/class/dfu/dfu_rt_device.c.obj
LOAD CMakeFiles/fm_example.dir/home/pi/pico/pico-sdk/lib/tinyusb/src/class/hid/hid_device.c.obj
LOAD CMakeFiles/fm_example.dir/home/pi/pico/pico-sdk/lib/tinyusb/src/class/midi/midi_device.c.obj
LOAD CMakeFiles/fm_example.dir/home/pi/pico/pico-sdk/lib/tinyusb/src/class/msc/msc_device.c.obj
LOAD CMakeFiles/fm_example.dir/home/pi/pico/pico-sdk/lib/tinyusb/src/class/net/net_device.c.obj
LOAD CMakeFiles/fm_example.dir/home/pi/pico/pico-sdk/lib/tinyusb/src/class/usbtmc/usbtmc_device.c.obj
LOAD CMakeFiles/fm_example.dir/home/pi/pico/pico-sdk/lib/tinyusb/src/class/vendor/vendor_device.c.obj
LOAD CMakeFiles/fm_example.dir/home/pi/pico/pico-sdk/lib/tinyusb/src/tusb.c.obj
LOAD CMakeFiles/fm_example.dir/home/pi/pico/pico-sdk/lib/tinyusb/src/common/tusb_fifo.c.obj
LOAD CMakeFiles/fm_example.dir/home/pi/pico/pico-sdk/src/rp2_common/pico_fix/rp2040_usb_device_enumeration/rp2040_usb_device_enumeration.c.obj
LOAD CMakeFiles/fm_example.dir/home/pi/pico/pico-sdk/src/rp2_common/pico_unique_id/unique_id.c.obj
LOAD CMakeFiles/fm_example.dir/home/pi/pico/pico-sdk/src/rp2_common/hardware_flash/flash.c.obj
LOAD CMakeFiles/fm_example.dir/pico-ss-oled/BitBang_I2C.c.obj
LOAD CMakeFiles/fm_example.dir/pico-ss-oled/ss_oled.c.obj
LOAD CMakeFiles/fm_example.dir/pico-ss-oled/ss_oled.cpp.obj
LOAD CMakeFiles/fm_example.dir/home/pi/pico/pico-sdk/src/rp2_common/hardware_adc/adc.c.obj
LOAD /tmp/ccmls62r.o
LOAD /usr/lib/gcc/arm-none-eabi/7.3.1/../../../arm-none-eabi/lib/thumb/v6-m/libstdc++.a
LOAD /usr/lib/gcc/arm-none-eabi/7.3.1/../../../arm-none-eabi/lib/thumb/v6-m/libm.a
START GROUP
LOAD /usr/lib/gcc/arm-none-eabi/7.3.1/thumb/v6-m/libgcc.a
LOAD /usr/lib/gcc/arm-none-eabi/7.3.1/../../../arm-none-eabi/lib/thumb/v6-m/libg.a
LOAD /usr/lib/gcc/arm-none-eabi/7.3.1/../../../arm-none-eabi/lib/thumb/v6-m/libc.a
END GROUP
START GROUP
LOAD /usr/lib/gcc/arm-none-eabi/7.3.1/thumb/v6-m/libgcc.a
LOAD /usr/lib/gcc/arm-none-eabi/7.3.1/../../../arm-none-eabi/lib/thumb/v6-m/libc.a
LOAD /usr/lib/gcc/arm-none-eabi/7.3.1/../../../arm-none-eabi/lib/thumb/v6-m/libnosys.a
END GROUP
LOAD /usr/lib/gcc/arm-none-eabi/7.3.1/thumb/v6-m/crtend.o
LOAD /usr/lib/gcc/arm-none-eabi/7.3.1/thumb/v6-m/crtn.o
OUTPUT(fm_example.elf elf32-littlearm)

.ARM.attributes
                0x00000000       0x28
 .ARM.attributes
                0x00000000       0x1e /usr/lib/gcc/arm-none-eabi/7.3.1/thumb/v6-m/crti.o
 .ARM.attributes
                0x0000001e       0x2c /usr/lib/gcc/arm-none-eabi/7.3.1/thumb/v6-m/crtbegin.o
 .ARM.attributes
                0x0000004a       0x32 CMakeFiles/fm_example.dir/fm_example.cpp.obj
 .ARM.attributes
                0x0000007c       0x32 CMakeFiles/fm_example.dir/fm_rda5807/fm_rda5807.c.obj
 .ARM.attributes
                0x000000ae       0x32 CMakeFiles/fm_example.dir/home/pi/pico/pico-sdk/src/rp2_common/hardware_i2c/i2c.c.obj
 .ARM.attributes
                0x000000e0       0x32 CMakeFiles/fm_example.dir/home/pi/pico/pico-sdk/src/rp2_common/hardware_claim/claim.c.obj
 .ARM.attributes
                0x00000112       0x32 CMakeFiles/fm_example.dir/home/pi/pico/pico-sdk/src/rp2_common/pico_platform/platform.c.obj
 .ARM.attributes
                0x00000144       0x32 CMakeFiles/fm_example.dir/home/pi/pico/pico-sdk/src/rp2_common/hardware_sync/sync.c.obj
 .ARM.attributes
                0x00000176       0x32 CMakeFiles/fm_example.dir/rds_parser/rds_parser.c.obj
 .ARM.attributes
                0x000001a8       0x32 CMakeFiles/fm_example.dir/home/pi/pico/pico-sdk/src/rp2_common/hardware_gpio/gpio.c.obj
 .ARM.attributes
                0x000001da       0x32 CMakeFiles/fm_example.dir/home/pi/pico/pico-sdk/src/rp2_common/hardware_uart/uart.c.obj
 .ARM.attributes
                0x0000020c       0x32 CMakeFiles/fm_example.dir/home/pi/pico/pico-sdk/src/common/pico_time/time.c.obj
 .ARM.attributes
                0x0000023e       0x32 CMakeFiles/fm_example.dir/home/pi/pico/pico-sdk/src/rp2_common/hardware_timer/timer.c.obj
 .ARM.attributes
                0x00000270       0x32 CMakeFiles/fm_example.dir/home/pi/pico/pico-sdk/src/common/pico_sync/lock_core.c.obj
 .ARM.attributes
                0x000002a2       0x32 CMakeFiles/fm_example.dir/home/pi/pico/pico-sdk/src/common/pico_sync/mutex.c.obj
 .ARM.attributes
                0x000002d4       0x32 CMakeFiles/fm_example.dir/home/pi/pico/pico-sdk/src/common/pico_sync/critical_section.c.obj
 .ARM.attributes
                0x00000306       0x32 CMakeFiles/fm_example.dir/home/pi/pico/pico-sdk/src/common/pico_util/pheap.c.obj
 .ARM.attributes
                0x00000338       0x32 CMakeFiles/fm_example.dir/home/pi/pico/pico-sdk/src/rp2_common/pico_runtime/runtime.c.obj
 .ARM.attributes
                0x0000036a       0x32 CMakeFiles/fm_example.dir/home/pi/pico/pico-sdk/src/rp2_common/hardware_clocks/clocks.c.obj
 .ARM.attributes
                0x0000039c       0x32 CMakeFiles/fm_example.dir/home/pi/pico/pico-sdk/src/rp2_common/hardware_irq/irq.c.obj
 .ARM.attributes
                0x000003ce       0x22 CMakeFiles/fm_example.dir/home/pi/pico/pico-sdk/src/rp2_common/hardware_irq/irq_handler_chain.S.obj
 .ARM.attributes
                0x000003f0       0x32 CMakeFiles/fm_example.dir/home/pi/pico/pico-sdk/src/rp2_common/hardware_pll/pll.c.obj
 .ARM.attributes
                0x00000422       0x32 CMakeFiles/fm_example.dir/home/pi/pico/pico-sdk/src/rp2_common/hardware_watchdog/watchdog.c.obj
 .ARM.attributes
                0x00000454       0x32 CMakeFiles/fm_example.dir/home/pi/pico/pico-sdk/src/rp2_common/hardware_xosc/xosc.c.obj
 .ARM.attributes
                0x00000486       0x32 CMakeFiles/fm_example.dir/home/pi/pico/pico-sdk/src/rp2_common/pico_printf/printf.c.obj
 .ARM.attributes
                0x000004b8       0x22 CMakeFiles/fm_example.dir/home/pi/pico/pico-sdk/src/rp2_common/pico_bit_ops/bit_ops_aeabi.S.obj
 .ARM.attributes
                0x000004da       0x32 CMakeFiles/fm_example.dir/home/pi/pico/pico-sdk/src/rp2_common/pico_bootrom/bootrom.c.obj
 .ARM.attributes
                0x0000050c       0x22 CMakeFiles/fm_example.dir/home/pi/pico/pico-sdk/src/rp2_common/pico_divider/divider.S.obj
 .ARM.attributes
                0x0000052e       0x22 CMakeFiles/fm_example.dir/home/pi/pico/pico-sdk/src/rp2_common/pico_double/double_aeabi.S.obj
 .ARM.attributes
                0x00000550       0x32 CMakeFiles/fm_example.dir/home/pi/pico/pico-sdk/src/rp2_common/pico_double/double_init_rom.c.obj
 .ARM.attributes
                0x00000582       0x22 CMakeFiles/fm_example.dir/home/pi/pico/pico-sdk/src/rp2_common/pico_double/double_v1_rom_shim.S.obj
 .ARM.attributes
                0x000005a4       0x22 CMakeFiles/fm_example.dir/home/pi/pico/pico-sdk/src/rp2_common/pico_int64_ops/pico_int64_ops_aeabi.S.obj
 .ARM.attributes
                0x000005c6       0x22 CMakeFiles/fm_example.dir/home/pi/pico/pico-sdk/src/rp2_common/pico_float/float_aeabi.S.obj
 .ARM.attributes
                0x000005e8       0x32 CMakeFiles/fm_example.dir/home/pi/pico/pico-sdk/src/rp2_common/pico_float/float_init_rom.c.obj
 .ARM.attributes
                0x0000061a       0x32 CMakeFiles/fm_example.dir/home/pi/pico/pico-sdk/src/rp2_common/pico_float/float_math.c.obj
 .ARM.attributes
                0x0000064c       0x22 CMakeFiles/fm_example.dir/home/pi/pico/pico-sdk/src/rp2_common/pico_float/float_v1_rom_shim.S.obj
 .ARM.attributes
                0x0000066e       0x22 CMakeFiles/fm_example.dir/home/pi/pico/pico-sdk/src/rp2_common/pico_mem_ops/mem_ops_aeabi.S.obj
 .ARM.attributes
                0x00000690       0x22 CMakeFiles/fm_example.dir/home/pi/pico/pico-sdk/src/rp2_common/pico_standard_link/crt0.S.obj
 .ARM.attributes
                0x000006b2       0x32 CMakeFiles/fm_example.dir/home/pi/pico/pico-sdk/src/rp2_common/pico_standard_link/binary_info.c.obj
 .ARM.attributes
                0x000006e4       0x32 CMakeFiles/fm_example.dir/home/pi/pico/pico-sdk/src/rp2_common/pico_stdio/stdio.c.obj
 .ARM.attributes
                0x00000716       0x32 CMakeFiles/fm_example.dir/home/pi/pico/pico-sdk/src/rp2_common/pico_stdio_uart/stdio_uart.c.obj
 .ARM.attributes
                0x00000748       0x32 CMakeFiles/fm_example.dir/home/pi/pico/pico-sdk/src/rp2_common/pico_stdio_usb/reset_interface.c.obj
 .ARM.attributes
                0x0000077a       0x32 CMakeFiles/fm_example.dir/home/pi/pico/pico-sdk/src/rp2_common/pico_stdio_usb/stdio_usb.c.obj
 .ARM.attributes
                0x000007ac       0x32 CMakeFiles/fm_example.dir/home/pi/pico/pico-sdk/src/rp2_common/pico_stdio_usb/stdio_usb_descriptors.c.obj
 .ARM.attributes
                0x000007de       0x32 CMakeFiles/fm_example.dir/home/pi/pico/pico-sdk/lib/tinyusb/src/portable/raspberrypi/rp2040/dcd_rp2040.c.obj
 .ARM.attributes
                0x00000810       0x32 CMakeFiles/fm_example.dir/home/pi/pico/pico-sdk/lib/tinyusb/src/portable/raspberrypi/rp2040/rp2040_usb.c.obj
 .ARM.attributes
                0x00000842       0x32 CMakeFiles/fm_example.dir/home/pi/pico/pico-sdk/lib/tinyusb/src/device/usbd.c.obj
 .ARM.attributes
                0x00000874       0x32 CMakeFiles/fm_example.dir/home/pi/pico/pico-sdk/lib/tinyusb/src/device/usbd_control.c.obj
 .ARM.attributes
                0x000008a6       0x32 CMakeFiles/fm_example.dir/home/pi/pico/pico-sdk/lib/tinyusb/src/class/cdc/cdc_device.c.obj
 .ARM.attributes
                0x000008d8       0x32 CMakeFiles/fm_example.dir/home/pi/pico/pico-sdk/lib/tinyusb/src/tusb.c.obj
 .ARM.attributes
                0x0000090a       0x32 CMakeFiles/fm_example.dir/home/pi/pico/pico-sdk/lib/tinyusb/src/common/tusb_fifo.c.obj
 .ARM.attributes
                0x0000093c       0x32 CMakeFiles/fm_example.dir/home/pi/pico/pico-sdk/src/rp2_common/pico_unique_id/unique_id.c.obj
 .ARM.attributes
                0x0000096e       0x32 CMakeFiles/fm_example.dir/home/pi/pico/pico-sdk/src/rp2_common/hardware_flash/flash.c.obj
 .ARM.attributes
                0x000009a0       0x32 CMakeFiles/fm_example.dir/pico-ss-oled/BitBang_I2C.c.obj
 .ARM.attributes
                0x000009d2       0x32 CMakeFiles/fm_example.dir/pico-ss-oled/ss_oled.c.obj
 .ARM.attributes
                0x00000a04       0x32 CMakeFiles/fm_example.dir/home/pi/pico/pico-sdk/src/rp2_common/hardware_adc/adc.c.obj
 .ARM.attributes
                0x00000a36       0x22 /tmp/ccmls62r.o
 .ARM.attributes
                0x00000a58       0x1e /usr/lib/gcc/arm-none-eabi/7.3.1/thumb/v6-m/libgcc.a(_dvmd_tls.o)
 .ARM.attributes
                0x00000a76       0x2c /usr/lib/gcc/arm-none-eabi/7.3.1/../../../arm-none-eabi/lib/thumb/v6-m/libg.a(lib_a-strlen-stub.o)
 .ARM.attributes
                0x00000aa2       0x2c /usr/lib/gcc/arm-none-eabi/7.3.1/thumb/v6-m/crtend.o

.comment        0x00000000       0xae
 .comment       0x00000000       0x57 /usr/lib/gcc/arm-none-eabi/7.3.1/thumb/v6-m/crtbegin.o
                                 0x58 (size before relaxing)
 .comment       0x00000057       0x58 CMakeFiles/fm_example.dir/fm_example.cpp.obj
 .comment       0x00000057       0x58 CMakeFiles/fm_example.dir/fm_rda5807/fm_rda5807.c.obj
 .comment       0x00000057       0x58 CMakeFiles/fm_example.dir/home/pi/pico/pico-sdk/src/rp2_common/hardware_i2c/i2c.c.obj
 .comment       0x00000057       0x58 CMakeFiles/fm_example.dir/home/pi/pico/pico-sdk/src/rp2_common/hardware_claim/claim.c.obj
 .comment       0x00000057       0x58 CMakeFiles/fm_example.dir/home/pi/pico/pico-sdk/src/rp2_common/pico_platform/platform.c.obj
 .comment       0x00000057       0x58 CMakeFiles/fm_example.dir/home/pi/pico/pico-sdk/src/rp2_common/hardware_sync/sync.c.obj
 .comment       0x00000057       0x58 CMakeFiles/fm_example.dir/rds_parser/rds_parser.c.obj
 .comment       0x00000057       0x58 CMakeFiles/fm_example.dir/home/pi/pico/pico-sdk/src/rp2_common/hardware_gpio/gpio.c.obj
 .comment       0x00000057       0x58 CMakeFiles/fm_example.dir/home/pi/pico/pico-sdk/src/rp2_common/hardware_uart/uart.c.obj
 .comment       0x00000057       0x58 CMakeFiles/fm_example.dir/home/pi/pico/pico-sdk/src/common/pico_time/time.c.obj
 .comment       0x00000057       0x58 CMakeFiles/fm_example.dir/home/pi/pico/pico-sdk/src/rp2_common/hardware_timer/timer.c.obj
 .comment       0x00000057       0x58 CMakeFiles/fm_example.dir/home/pi/pico/pico-sdk/src/common/pico_sync/lock_core.c.obj
 .comment       0x00000057       0x58 CMakeFiles/fm_example.dir/home/pi/pico/pico-sdk/src/common/pico_sync/mutex.c.obj
 .comment       0x00000057       0x58 CMakeFiles/fm_example.dir/home/pi/pico/pico-sdk/src/common/pico_sync/critical_section.c.obj
 .comment       0x00000057       0x58 CMakeFiles/fm_example.dir/home/pi/pico/pico-sdk/src/common/pico_util/pheap.c.obj
 .comment       0x00000057       0x58 CMakeFiles/fm_example.dir/home/pi/pico/pico-sdk/src/rp2_common/pico_runtime/runtime.c.obj
 .comment       0x00000057       0x58 CMakeFiles/fm_example.dir/home/pi/pico/pico-sdk/src/rp2_common/hardware_clocks/clocks.c.obj
 .comment       0x00000057       0x58 CMakeFiles/fm_example.dir/home/pi/pico/pico-sdk/src/rp2_common/hardware_irq/irq.c.obj
 .comment       0x00000057       0x58 CMakeFiles/fm_example.dir/home/pi/pico/pico-sdk/src/rp2_common/hardware_pll/pll.c.obj
 .comment       0x00000057       0x58 CMakeFiles/fm_example.dir/home/pi/pico/pico-sdk/src/rp2_common/hardware_watchdog/watchdog.c.obj
 .comment       0x00000057       0x58 CMakeFiles/fm_example.dir/home/pi/pico/pico-sdk/src/rp2_common/hardware_xosc/xosc.c.obj
 .comment       0x00000057       0x58 CMakeFiles/fm_example.dir/home/pi/pico/pico-sdk/src/rp2_common/pico_printf/printf.c.obj
 .comment       0x00000057       0x58 CMakeFiles/fm_example.dir/home/pi/pico/pico-sdk/src/rp2_common/pico_bootrom/bootrom.c.obj
 .comment       0x00000057       0x58 CMakeFiles/fm_example.dir/home/pi/pico/pico-sdk/src/rp2_common/pico_double/double_init_rom.c.obj
 .comment       0x00000057       0x58 CMakeFiles/fm_example.dir/home/pi/pico/pico-sdk/src/rp2_common/pico_float/float_init_rom.c.obj
 .comment       0x00000057       0x58 CMakeFiles/fm_example.dir/home/pi/pico/pico-sdk/src/rp2_common/pico_float/float_math.c.obj
 .comment       0x00000057       0x58 CMakeFiles/fm_example.dir/home/pi/pico/pico-sdk/src/rp2_common/pico_standard_link/binary_info.c.obj
 .comment       0x00000057       0x58 CMakeFiles/fm_example.dir/home/pi/pico/pico-sdk/src/rp2_common/pico_stdio/stdio.c.obj
 .comment       0x00000057       0x58 CMakeFiles/fm_example.dir/home/pi/pico/pico-sdk/src/rp2_common/pico_stdio_uart/stdio_uart.c.obj
 .comment       0x00000057       0x58 CMakeFiles/fm_example.dir/home/pi/pico/pico-sdk/src/rp2_common/pico_stdio_usb/reset_interface.c.obj
 .comment       0x00000057       0x58 CMakeFiles/fm_example.dir/home/pi/pico/pico-sdk/src/rp2_common/pico_stdio_usb/stdio_usb.c.obj
 .comment       0x00000057       0x58 CMakeFiles/fm_example.dir/home/pi/pico/pico-sdk/src/rp2_common/pico_stdio_usb/stdio_usb_descriptors.c.obj
 .comment       0x00000057       0x58 CMakeFiles/fm_example.dir/home/pi/pico/pico-sdk/lib/tinyusb/src/portable/raspberrypi/rp2040/dcd_rp2040.c.obj
 .comment       0x00000057       0x58 CMakeFiles/fm_example.dir/home/pi/pico/pico-sdk/lib/tinyusb/src/portable/raspberrypi/rp2040/rp2040_usb.c.obj
 .comment       0x00000057       0x58 CMakeFiles/fm_example.dir/home/pi/pico/pico-sdk/lib/tinyusb/src/device/usbd.c.obj
 .comment       0x00000057       0x58 CMakeFiles/fm_example.dir/home/pi/pico/pico-sdk/lib/tinyusb/src/device/usbd_control.c.obj
 .comment       0x00000057       0x58 CMakeFiles/fm_example.dir/home/pi/pico/pico-sdk/lib/tinyusb/src/class/cdc/cdc_device.c.obj
 .comment       0x00000057       0x58 CMakeFiles/fm_example.dir/home/pi/pico/pico-sdk/lib/tinyusb/src/tusb.c.obj
 .comment       0x00000057       0x58 CMakeFiles/fm_example.dir/home/pi/pico/pico-sdk/lib/tinyusb/src/common/tusb_fifo.c.obj
 .comment       0x00000057       0x58 CMakeFiles/fm_example.dir/home/pi/pico/pico-sdk/src/rp2_common/pico_unique_id/unique_id.c.obj
 .comment       0x00000057       0x58 CMakeFiles/fm_example.dir/home/pi/pico/pico-sdk/src/rp2_common/hardware_flash/flash.c.obj
 .comment       0x00000057       0x58 CMakeFiles/fm_example.dir/pico-ss-oled/BitBang_I2C.c.obj
 .comment       0x00000057       0x58 CMakeFiles/fm_example.dir/pico-ss-oled/ss_oled.c.obj
 .comment       0x00000057       0x58 CMakeFiles/fm_example.dir/home/pi/pico/pico-sdk/src/rp2_common/hardware_adc/adc.c.obj
 .comment       0x00000057       0x57 /usr/lib/gcc/arm-none-eabi/7.3.1/../../../arm-none-eabi/lib/thumb/v6-m/libg.a(lib_a-strlen-stub.o)
                                 0x58 (size before relaxing)
 .comment       0x000000ae       0x58 /usr/lib/gcc/arm-none-eabi/7.3.1/thumb/v6-m/crtend.o

.debug_info     0x00000000    0x37425
 .debug_info    0x00000000     0x424b CMakeFiles/fm_example.dir/fm_example.cpp.obj
 .debug_info    0x0000424b     0x2e51 CMakeFiles/fm_example.dir/fm_rda5807/fm_rda5807.c.obj
 .debug_info    0x0000709c     0x1235 CMakeFiles/fm_example.dir/home/pi/pico/pico-sdk/src/rp2_common/hardware_i2c/i2c.c.obj
 .debug_info    0x000082d1      0x5d7 CMakeFiles/fm_example.dir/home/pi/pico/pico-sdk/src/rp2_common/hardware_claim/claim.c.obj
 .debug_info    0x000088a8      0x1c6 CMakeFiles/fm_example.dir/home/pi/pico/pico-sdk/src/rp2_common/pico_platform/platform.c.obj
 .debug_info    0x00008a6e      0x508 CMakeFiles/fm_example.dir/home/pi/pico/pico-sdk/src/rp2_common/hardware_sync/sync.c.obj
 .debug_info    0x00008f76     0x105a CMakeFiles/fm_example.dir/rds_parser/rds_parser.c.obj
 .debug_info    0x00009fd0     0x1169 CMakeFiles/fm_example.dir/home/pi/pico/pico-sdk/src/rp2_common/hardware_gpio/gpio.c.obj
 .debug_info    0x0000b139      0xa10 CMakeFiles/fm_example.dir/home/pi/pico/pico-sdk/src/rp2_common/hardware_uart/uart.c.obj
 .debug_info    0x0000bb49     0x3a95 CMakeFiles/fm_example.dir/home/pi/pico/pico-sdk/src/common/pico_time/time.c.obj
 .debug_info    0x0000f5de      0xe5f CMakeFiles/fm_example.dir/home/pi/pico/pico-sdk/src/rp2_common/hardware_timer/timer.c.obj
 .debug_info    0x0001043d      0x1e8 CMakeFiles/fm_example.dir/home/pi/pico/pico-sdk/src/common/pico_sync/lock_core.c.obj
 .debug_info    0x00010625     0x108d CMakeFiles/fm_example.dir/home/pi/pico/pico-sdk/src/common/pico_sync/mutex.c.obj
 .debug_info    0x000116b2      0x2fd CMakeFiles/fm_example.dir/home/pi/pico/pico-sdk/src/common/pico_sync/critical_section.c.obj
 .debug_info    0x000119af     0x1842 CMakeFiles/fm_example.dir/home/pi/pico/pico-sdk/src/common/pico_util/pheap.c.obj
 .debug_info    0x000131f1     0x1111 CMakeFiles/fm_example.dir/home/pi/pico/pico-sdk/src/rp2_common/pico_runtime/runtime.c.obj
 .debug_info    0x00014302      0xd65 CMakeFiles/fm_example.dir/home/pi/pico/pico-sdk/src/rp2_common/hardware_clocks/clocks.c.obj
 .debug_info    0x00015067     0x15bd CMakeFiles/fm_example.dir/home/pi/pico/pico-sdk/src/rp2_common/hardware_irq/irq.c.obj
 .debug_info    0x00016624       0x26 CMakeFiles/fm_example.dir/home/pi/pico/pico-sdk/src/rp2_common/hardware_irq/irq_handler_chain.S.obj
 .debug_info    0x0001664a      0x453 CMakeFiles/fm_example.dir/home/pi/pico/pico-sdk/src/rp2_common/hardware_pll/pll.c.obj
 .debug_info    0x00016a9d      0xc21 CMakeFiles/fm_example.dir/home/pi/pico/pico-sdk/src/rp2_common/hardware_watchdog/watchdog.c.obj
 .debug_info    0x000176be      0x1b7 CMakeFiles/fm_example.dir/home/pi/pico/pico-sdk/src/rp2_common/hardware_xosc/xosc.c.obj
 .debug_info    0x00017875     0x1d4b CMakeFiles/fm_example.dir/home/pi/pico/pico-sdk/src/rp2_common/pico_printf/printf.c.obj
 .debug_info    0x000195c0       0x22 CMakeFiles/fm_example.dir/home/pi/pico/pico-sdk/src/rp2_common/pico_bit_ops/bit_ops_aeabi.S.obj
 .debug_info    0x000195e2      0x1f5 CMakeFiles/fm_example.dir/home/pi/pico/pico-sdk/src/rp2_common/pico_bootrom/bootrom.c.obj
 .debug_info    0x000197d7       0x22 CMakeFiles/fm_example.dir/home/pi/pico/pico-sdk/src/rp2_common/pico_divider/divider.S.obj
 .debug_info    0x000197f9       0x22 CMakeFiles/fm_example.dir/home/pi/pico/pico-sdk/src/rp2_common/pico_double/double_aeabi.S.obj
 .debug_info    0x0001981b      0xa8a CMakeFiles/fm_example.dir/home/pi/pico/pico-sdk/src/rp2_common/pico_double/double_init_rom.c.obj
 .debug_info    0x0001a2a5       0x22 CMakeFiles/fm_example.dir/home/pi/pico/pico-sdk/src/rp2_common/pico_double/double_v1_rom_shim.S.obj
 .debug_info    0x0001a2c7       0x26 CMakeFiles/fm_example.dir/home/pi/pico/pico-sdk/src/rp2_common/pico_int64_ops/pico_int64_ops_aeabi.S.obj
 .debug_info    0x0001a2ed       0x22 CMakeFiles/fm_example.dir/home/pi/pico/pico-sdk/src/rp2_common/pico_float/float_aeabi.S.obj
 .debug_info    0x0001a30f      0xacc CMakeFiles/fm_example.dir/home/pi/pico/pico-sdk/src/rp2_common/pico_float/float_init_rom.c.obj
 .debug_info    0x0001addb     0x2971 CMakeFiles/fm_example.dir/home/pi/pico/pico-sdk/src/rp2_common/pico_float/float_math.c.obj
 .debug_info    0x0001d74c       0x22 CMakeFiles/fm_example.dir/home/pi/pico/pico-sdk/src/rp2_common/pico_float/float_v1_rom_shim.S.obj
 .debug_info    0x0001d76e       0x22 CMakeFiles/fm_example.dir/home/pi/pico/pico-sdk/src/rp2_common/pico_mem_ops/mem_ops_aeabi.S.obj
 .debug_info    0x0001d790       0x22 CMakeFiles/fm_example.dir/home/pi/pico/pico-sdk/src/rp2_common/pico_standard_link/crt0.S.obj
 .debug_info    0x0001d7b2      0x2cc CMakeFiles/fm_example.dir/home/pi/pico/pico-sdk/src/rp2_common/pico_standard_link/binary_info.c.obj
 .debug_info    0x0001da7e     0x17be CMakeFiles/fm_example.dir/home/pi/pico/pico-sdk/src/rp2_common/pico_stdio/stdio.c.obj
 .debug_info    0x0001f23c      0xb15 CMakeFiles/fm_example.dir/home/pi/pico/pico-sdk/src/rp2_common/pico_stdio_uart/stdio_uart.c.obj
 .debug_info    0x0001fd51     0x1058 CMakeFiles/fm_example.dir/home/pi/pico/pico-sdk/src/rp2_common/pico_stdio_usb/reset_interface.c.obj
 .debug_info    0x00020da9     0x155d CMakeFiles/fm_example.dir/home/pi/pico/pico-sdk/src/rp2_common/pico_stdio_usb/stdio_usb.c.obj
 .debug_info    0x00022306      0xe99 CMakeFiles/fm_example.dir/home/pi/pico/pico-sdk/src/rp2_common/pico_stdio_usb/stdio_usb_descriptors.c.obj
 .debug_info    0x0002319f     0x21c0 CMakeFiles/fm_example.dir/home/pi/pico/pico-sdk/lib/tinyusb/src/portable/raspberrypi/rp2040/dcd_rp2040.c.obj
 .debug_info    0x0002535f     0x1456 CMakeFiles/fm_example.dir/home/pi/pico/pico-sdk/lib/tinyusb/src/portable/raspberrypi/rp2040/rp2040_usb.c.obj
 .debug_info    0x000267b5     0x422d CMakeFiles/fm_example.dir/home/pi/pico/pico-sdk/lib/tinyusb/src/device/usbd.c.obj
 .debug_info    0x0002a9e2     0x120d CMakeFiles/fm_example.dir/home/pi/pico/pico-sdk/lib/tinyusb/src/device/usbd_control.c.obj
 .debug_info    0x0002bbef     0x2244 CMakeFiles/fm_example.dir/home/pi/pico/pico-sdk/lib/tinyusb/src/class/cdc/cdc_device.c.obj
 .debug_info    0x0002de33      0xd48 CMakeFiles/fm_example.dir/home/pi/pico/pico-sdk/lib/tinyusb/src/tusb.c.obj
 .debug_info    0x0002eb7b     0x2b24 CMakeFiles/fm_example.dir/home/pi/pico/pico-sdk/lib/tinyusb/src/common/tusb_fifo.c.obj
 .debug_info    0x0003169f      0x235 CMakeFiles/fm_example.dir/home/pi/pico/pico-sdk/src/rp2_common/pico_unique_id/unique_id.c.obj
 .debug_info    0x000318d4      0xa9f CMakeFiles/fm_example.dir/home/pi/pico/pico-sdk/src/rp2_common/hardware_flash/flash.c.obj
 .debug_info    0x00032373      0xdee CMakeFiles/fm_example.dir/pico-ss-oled/BitBang_I2C.c.obj
 .debug_info    0x00033161     0x3745 CMakeFiles/fm_example.dir/pico-ss-oled/ss_oled.c.obj
 .debug_info    0x000368a6      0x277 CMakeFiles/fm_example.dir/home/pi/pico/pico-sdk/src/rp2_common/hardware_adc/adc.c.obj
 .debug_info    0x00036b1d       0x26 /usr/lib/gcc/arm-none-eabi/7.3.1/thumb/v6-m/libgcc.a(_dvmd_tls.o)
 .debug_info    0x00036b43      0x8e2 /usr/lib/gcc/arm-none-eabi/7.3.1/../../../arm-none-eabi/lib/thumb/v6-m/libg.a(lib_a-strlen-stub.o)

.debug_abbrev   0x00000000     0x867e
 .debug_abbrev  0x00000000      0x60c CMakeFiles/fm_example.dir/fm_example.cpp.obj
 .debug_abbrev  0x0000060c      0x42e CMakeFiles/fm_example.dir/fm_rda5807/fm_rda5807.c.obj
 .debug_abbrev  0x00000a3a      0x3c0 CMakeFiles/fm_example.dir/home/pi/pico/pico-sdk/src/rp2_common/hardware_i2c/i2c.c.obj
 .debug_abbrev  0x00000dfa      0x254 CMakeFiles/fm_example.dir/home/pi/pico/pico-sdk/src/rp2_common/hardware_claim/claim.c.obj
 .debug_abbrev  0x0000104e       0xde CMakeFiles/fm_example.dir/home/pi/pico/pico-sdk/src/rp2_common/pico_platform/platform.c.obj
 .debug_abbrev  0x0000112c      0x1e8 CMakeFiles/fm_example.dir/home/pi/pico/pico-sdk/src/rp2_common/hardware_sync/sync.c.obj
 .debug_abbrev  0x00001314      0x2d7 CMakeFiles/fm_example.dir/rds_parser/rds_parser.c.obj
 .debug_abbrev  0x000015eb      0x287 CMakeFiles/fm_example.dir/home/pi/pico/pico-sdk/src/rp2_common/hardware_gpio/gpio.c.obj
 .debug_abbrev  0x00001872      0x29c CMakeFiles/fm_example.dir/home/pi/pico/pico-sdk/src/rp2_common/hardware_uart/uart.c.obj
 .debug_abbrev  0x00001b0e      0x57c CMakeFiles/fm_example.dir/home/pi/pico/pico-sdk/src/common/pico_time/time.c.obj
 .debug_abbrev  0x0000208a      0x300 CMakeFiles/fm_example.dir/home/pi/pico/pico-sdk/src/rp2_common/hardware_timer/timer.c.obj
 .debug_abbrev  0x0000238a      0x12d CMakeFiles/fm_example.dir/home/pi/pico/pico-sdk/src/common/pico_sync/lock_core.c.obj
 .debug_abbrev  0x000024b7      0x329 CMakeFiles/fm_example.dir/home/pi/pico/pico-sdk/src/common/pico_sync/mutex.c.obj
 .debug_abbrev  0x000027e0      0x1a4 CMakeFiles/fm_example.dir/home/pi/pico/pico-sdk/src/common/pico_sync/critical_section.c.obj
 .debug_abbrev  0x00002984      0x376 CMakeFiles/fm_example.dir/home/pi/pico/pico-sdk/src/common/pico_util/pheap.c.obj
 .debug_abbrev  0x00002cfa      0x3d5 CMakeFiles/fm_example.dir/home/pi/pico/pico-sdk/src/rp2_common/pico_runtime/runtime.c.obj
 .debug_abbrev  0x000030cf      0x330 CMakeFiles/fm_example.dir/home/pi/pico/pico-sdk/src/rp2_common/hardware_clocks/clocks.c.obj
 .debug_abbrev  0x000033ff      0x3dc CMakeFiles/fm_example.dir/home/pi/pico/pico-sdk/src/rp2_common/hardware_irq/irq.c.obj
 .debug_abbrev  0x000037db       0x14 CMakeFiles/fm_example.dir/home/pi/pico/pico-sdk/src/rp2_common/hardware_irq/irq_handler_chain.S.obj
 .debug_abbrev  0x000037ef      0x1a0 CMakeFiles/fm_example.dir/home/pi/pico/pico-sdk/src/rp2_common/hardware_pll/pll.c.obj
 .debug_abbrev  0x0000398f      0x27f CMakeFiles/fm_example.dir/home/pi/pico/pico-sdk/src/rp2_common/hardware_watchdog/watchdog.c.obj
 .debug_abbrev  0x00003c0e       0xec CMakeFiles/fm_example.dir/home/pi/pico/pico-sdk/src/rp2_common/hardware_xosc/xosc.c.obj
 .debug_abbrev  0x00003cfa      0x402 CMakeFiles/fm_example.dir/home/pi/pico/pico-sdk/src/rp2_common/pico_printf/printf.c.obj
 .debug_abbrev  0x000040fc       0x12 CMakeFiles/fm_example.dir/home/pi/pico/pico-sdk/src/rp2_common/pico_bit_ops/bit_ops_aeabi.S.obj
 .debug_abbrev  0x0000410e       0xe3 CMakeFiles/fm_example.dir/home/pi/pico/pico-sdk/src/rp2_common/pico_bootrom/bootrom.c.obj
 .debug_abbrev  0x000041f1       0x12 CMakeFiles/fm_example.dir/home/pi/pico/pico-sdk/src/rp2_common/pico_divider/divider.S.obj
 .debug_abbrev  0x00004203       0x12 CMakeFiles/fm_example.dir/home/pi/pico/pico-sdk/src/rp2_common/pico_double/double_aeabi.S.obj
 .debug_abbrev  0x00004215      0x267 CMakeFiles/fm_example.dir/home/pi/pico/pico-sdk/src/rp2_common/pico_double/double_init_rom.c.obj
 .debug_abbrev  0x0000447c       0x12 CMakeFiles/fm_example.dir/home/pi/pico/pico-sdk/src/rp2_common/pico_double/double_v1_rom_shim.S.obj
 .debug_abbrev  0x0000448e       0x14 CMakeFiles/fm_example.dir/home/pi/pico/pico-sdk/src/rp2_common/pico_int64_ops/pico_int64_ops_aeabi.S.obj
 .debug_abbrev  0x000044a2       0x12 CMakeFiles/fm_example.dir/home/pi/pico/pico-sdk/src/rp2_common/pico_float/float_aeabi.S.obj
 .debug_abbrev  0x000044b4      0x281 CMakeFiles/fm_example.dir/home/pi/pico/pico-sdk/src/rp2_common/pico_float/float_init_rom.c.obj
 .debug_abbrev  0x00004735      0x3e2 CMakeFiles/fm_example.dir/home/pi/pico/pico-sdk/src/rp2_common/pico_float/float_math.c.obj
 .debug_abbrev  0x00004b17       0x12 CMakeFiles/fm_example.dir/home/pi/pico/pico-sdk/src/rp2_common/pico_float/float_v1_rom_shim.S.obj
 .debug_abbrev  0x00004b29       0x12 CMakeFiles/fm_example.dir/home/pi/pico/pico-sdk/src/rp2_common/pico_mem_ops/mem_ops_aeabi.S.obj
 .debug_abbrev  0x00004b3b       0x12 CMakeFiles/fm_example.dir/home/pi/pico/pico-sdk/src/rp2_common/pico_standard_link/crt0.S.obj
 .debug_abbrev  0x00004b4d       0x9f CMakeFiles/fm_example.dir/home/pi/pico/pico-sdk/src/rp2_common/pico_standard_link/binary_info.c.obj
 .debug_abbrev  0x00004bec      0x4b6 CMakeFiles/fm_example.dir/home/pi/pico/pico-sdk/src/rp2_common/pico_stdio/stdio.c.obj
 .debug_abbrev  0x000050a2      0x36d CMakeFiles/fm_example.dir/home/pi/pico/pico-sdk/src/rp2_common/pico_stdio_uart/stdio_uart.c.obj
 .debug_abbrev  0x0000540f      0x370 CMakeFiles/fm_example.dir/home/pi/pico/pico-sdk/src/rp2_common/pico_stdio_usb/reset_interface.c.obj
 .debug_abbrev  0x0000577f      0x42c CMakeFiles/fm_example.dir/home/pi/pico/pico-sdk/src/rp2_common/pico_stdio_usb/stdio_usb.c.obj
 .debug_abbrev  0x00005bab      0x23f CMakeFiles/fm_example.dir/home/pi/pico/pico-sdk/src/rp2_common/pico_stdio_usb/stdio_usb_descriptors.c.obj
 .debug_abbrev  0x00005dea      0x442 CMakeFiles/fm_example.dir/home/pi/pico/pico-sdk/lib/tinyusb/src/portable/raspberrypi/rp2040/dcd_rp2040.c.obj
 .debug_abbrev  0x0000622c      0x3c4 CMakeFiles/fm_example.dir/home/pi/pico/pico-sdk/lib/tinyusb/src/portable/raspberrypi/rp2040/rp2040_usb.c.obj
 .debug_abbrev  0x000065f0      0x55d CMakeFiles/fm_example.dir/home/pi/pico/pico-sdk/lib/tinyusb/src/device/usbd.c.obj
 .debug_abbrev  0x00006b4d      0x374 CMakeFiles/fm_example.dir/home/pi/pico/pico-sdk/lib/tinyusb/src/device/usbd_control.c.obj
 .debug_abbrev  0x00006ec1      0x4a5 CMakeFiles/fm_example.dir/home/pi/pico/pico-sdk/lib/tinyusb/src/class/cdc/cdc_device.c.obj
 .debug_abbrev  0x00007366      0x2e3 CMakeFiles/fm_example.dir/home/pi/pico/pico-sdk/lib/tinyusb/src/tusb.c.obj
 .debug_abbrev  0x00007649      0x45c CMakeFiles/fm_example.dir/home/pi/pico/pico-sdk/lib/tinyusb/src/common/tusb_fifo.c.obj
 .debug_abbrev  0x00007aa5      0x143 CMakeFiles/fm_example.dir/home/pi/pico/pico-sdk/src/rp2_common/pico_unique_id/unique_id.c.obj
 .debug_abbrev  0x00007be8      0x23b CMakeFiles/fm_example.dir/home/pi/pico/pico-sdk/src/rp2_common/hardware_flash/flash.c.obj
 .debug_abbrev  0x00007e23      0x228 CMakeFiles/fm_example.dir/pico-ss-oled/BitBang_I2C.c.obj
 .debug_abbrev  0x0000804b      0x373 CMakeFiles/fm_example.dir/pico-ss-oled/ss_oled.c.obj
 .debug_abbrev  0x000083be       0xf4 CMakeFiles/fm_example.dir/home/pi/pico/pico-sdk/src/rp2_common/hardware_adc/adc.c.obj
 .debug_abbrev  0x000084b2       0x14 /usr/lib/gcc/arm-none-eabi/7.3.1/thumb/v6-m/libgcc.a(_dvmd_tls.o)
 .debug_abbrev  0x000084c6      0x1b8 /usr/lib/gcc/arm-none-eabi/7.3.1/../../../arm-none-eabi/lib/thumb/v6-m/libg.a(lib_a-strlen-stub.o)

.debug_loc      0x00000000    0x1bc08
 .debug_loc     0x00000000      0xa67 CMakeFiles/fm_example.dir/fm_example.cpp.obj
 .debug_loc     0x00000a67     0x14b2 CMakeFiles/fm_example.dir/fm_rda5807/fm_rda5807.c.obj
 .debug_loc     0x00001f19      0xff1 CMakeFiles/fm_example.dir/home/pi/pico/pico-sdk/src/rp2_common/hardware_i2c/i2c.c.obj
 .debug_loc     0x00002f0a      0x371 CMakeFiles/fm_example.dir/home/pi/pico/pico-sdk/src/rp2_common/hardware_claim/claim.c.obj
 .debug_loc     0x0000327b       0xcf CMakeFiles/fm_example.dir/home/pi/pico/pico-sdk/src/rp2_common/pico_platform/platform.c.obj
 .debug_loc     0x0000334a      0x196 CMakeFiles/fm_example.dir/home/pi/pico/pico-sdk/src/rp2_common/hardware_sync/sync.c.obj
 .debug_loc     0x000034e0      0x713 CMakeFiles/fm_example.dir/rds_parser/rds_parser.c.obj
 .debug_loc     0x00003bf3      0xd1a CMakeFiles/fm_example.dir/home/pi/pico/pico-sdk/src/rp2_common/hardware_gpio/gpio.c.obj
 .debug_loc     0x0000490d      0x457 CMakeFiles/fm_example.dir/home/pi/pico/pico-sdk/src/rp2_common/hardware_uart/uart.c.obj
 .debug_loc     0x00004d64     0x2365 CMakeFiles/fm_example.dir/home/pi/pico/pico-sdk/src/common/pico_time/time.c.obj
 .debug_loc     0x000070c9      0x59d CMakeFiles/fm_example.dir/home/pi/pico/pico-sdk/src/rp2_common/hardware_timer/timer.c.obj
 .debug_loc     0x00007666       0x56 CMakeFiles/fm_example.dir/home/pi/pico/pico-sdk/src/common/pico_sync/lock_core.c.obj
 .debug_loc     0x000076bc      0x966 CMakeFiles/fm_example.dir/home/pi/pico/pico-sdk/src/common/pico_sync/mutex.c.obj
 .debug_loc     0x00008022       0xc2 CMakeFiles/fm_example.dir/home/pi/pico/pico-sdk/src/common/pico_sync/critical_section.c.obj
 .debug_loc     0x000080e4      0xfd7 CMakeFiles/fm_example.dir/home/pi/pico/pico-sdk/src/common/pico_util/pheap.c.obj
 .debug_loc     0x000090bb      0x2bd CMakeFiles/fm_example.dir/home/pi/pico/pico-sdk/src/rp2_common/pico_runtime/runtime.c.obj
 .debug_loc     0x00009378      0x66e CMakeFiles/fm_example.dir/home/pi/pico/pico-sdk/src/rp2_common/hardware_clocks/clocks.c.obj
 .debug_loc     0x000099e6      0xba7 CMakeFiles/fm_example.dir/home/pi/pico/pico-sdk/src/rp2_common/hardware_irq/irq.c.obj
 .debug_loc     0x0000a58d      0x28f CMakeFiles/fm_example.dir/home/pi/pico/pico-sdk/src/rp2_common/hardware_pll/pll.c.obj
 .debug_loc     0x0000a81c      0x221 CMakeFiles/fm_example.dir/home/pi/pico/pico-sdk/src/rp2_common/hardware_watchdog/watchdog.c.obj
 .debug_loc     0x0000aa3d       0x35 CMakeFiles/fm_example.dir/home/pi/pico/pico-sdk/src/rp2_common/hardware_xosc/xosc.c.obj
 .debug_loc     0x0000aa72     0x1b4a CMakeFiles/fm_example.dir/home/pi/pico/pico-sdk/src/rp2_common/pico_printf/printf.c.obj
 .debug_loc     0x0000c5bc      0x145 CMakeFiles/fm_example.dir/home/pi/pico/pico-sdk/src/rp2_common/pico_bootrom/bootrom.c.obj
 .debug_loc     0x0000c701       0x4f CMakeFiles/fm_example.dir/home/pi/pico/pico-sdk/src/rp2_common/pico_double/double_init_rom.c.obj
 .debug_loc     0x0000c750       0x65 CMakeFiles/fm_example.dir/home/pi/pico/pico-sdk/src/rp2_common/pico_float/float_init_rom.c.obj
 .debug_loc     0x0000c7b5     0x31d3 CMakeFiles/fm_example.dir/home/pi/pico/pico-sdk/src/rp2_common/pico_float/float_math.c.obj
 .debug_loc     0x0000f988      0x8e0 CMakeFiles/fm_example.dir/home/pi/pico/pico-sdk/src/rp2_common/pico_stdio/stdio.c.obj
 .debug_loc     0x00010268      0x444 CMakeFiles/fm_example.dir/home/pi/pico/pico-sdk/src/rp2_common/pico_stdio_uart/stdio_uart.c.obj
 .debug_loc     0x000106ac      0x30c CMakeFiles/fm_example.dir/home/pi/pico/pico-sdk/src/rp2_common/pico_stdio_usb/reset_interface.c.obj
 .debug_loc     0x000109b8      0x4f7 CMakeFiles/fm_example.dir/home/pi/pico/pico-sdk/src/rp2_common/pico_stdio_usb/stdio_usb.c.obj
 .debug_loc     0x00010eaf       0xe9 CMakeFiles/fm_example.dir/home/pi/pico/pico-sdk/src/rp2_common/pico_stdio_usb/stdio_usb_descriptors.c.obj
 .debug_loc     0x00010f98      0xb6c CMakeFiles/fm_example.dir/home/pi/pico/pico-sdk/lib/tinyusb/src/portable/raspberrypi/rp2040/dcd_rp2040.c.obj
 .debug_loc     0x00011b04      0x54c CMakeFiles/fm_example.dir/home/pi/pico/pico-sdk/lib/tinyusb/src/portable/raspberrypi/rp2040/rp2040_usb.c.obj
 .debug_loc     0x00012050     0x1b50 CMakeFiles/fm_example.dir/home/pi/pico/pico-sdk/lib/tinyusb/src/device/usbd.c.obj
 .debug_loc     0x00013ba0      0x432 CMakeFiles/fm_example.dir/home/pi/pico/pico-sdk/lib/tinyusb/src/device/usbd_control.c.obj
 .debug_loc     0x00013fd2      0xee7 CMakeFiles/fm_example.dir/home/pi/pico/pico-sdk/lib/tinyusb/src/class/cdc/cdc_device.c.obj
 .debug_loc     0x00014eb9      0x27a CMakeFiles/fm_example.dir/home/pi/pico/pico-sdk/lib/tinyusb/src/tusb.c.obj
 .debug_loc     0x00015133     0x24dc CMakeFiles/fm_example.dir/home/pi/pico/pico-sdk/lib/tinyusb/src/common/tusb_fifo.c.obj
 .debug_loc     0x0001760f       0xe1 CMakeFiles/fm_example.dir/home/pi/pico/pico-sdk/src/rp2_common/pico_unique_id/unique_id.c.obj
 .debug_loc     0x000176f0      0x520 CMakeFiles/fm_example.dir/home/pi/pico/pico-sdk/src/rp2_common/hardware_flash/flash.c.obj
 .debug_loc     0x00017c10      0x49d CMakeFiles/fm_example.dir/pico-ss-oled/BitBang_I2C.c.obj
 .debug_loc     0x000180ad     0x3a87 CMakeFiles/fm_example.dir/pico-ss-oled/ss_oled.c.obj
 .debug_loc     0x0001bb34       0x40 CMakeFiles/fm_example.dir/home/pi/pico/pico-sdk/src/rp2_common/hardware_adc/adc.c.obj
 .debug_loc     0x0001bb74       0x94 /usr/lib/gcc/arm-none-eabi/7.3.1/../../../arm-none-eabi/lib/thumb/v6-m/libg.a(lib_a-strlen-stub.o)

.debug_aranges  0x00000000     0x1900
 .debug_aranges
                0x00000000       0x70 CMakeFiles/fm_example.dir/fm_example.cpp.obj
 .debug_aranges
                0x00000070      0x160 CMakeFiles/fm_example.dir/fm_rda5807/fm_rda5807.c.obj
 .debug_aranges
                0x000001d0       0x78 CMakeFiles/fm_example.dir/home/pi/pico/pico-sdk/src/rp2_common/hardware_i2c/i2c.c.obj
 .debug_aranges
                0x00000248       0x48 CMakeFiles/fm_example.dir/home/pi/pico/pico-sdk/src/rp2_common/hardware_claim/claim.c.obj
 .debug_aranges
                0x00000290       0x28 CMakeFiles/fm_example.dir/home/pi/pico/pico-sdk/src/rp2_common/pico_platform/platform.c.obj
 .debug_aranges
                0x000002b8       0x58 CMakeFiles/fm_example.dir/home/pi/pico/pico-sdk/src/rp2_common/hardware_sync/sync.c.obj
 .debug_aranges
                0x00000310       0x90 CMakeFiles/fm_example.dir/rds_parser/rds_parser.c.obj
 .debug_aranges
                0x000003a0       0xd8 CMakeFiles/fm_example.dir/home/pi/pico/pico-sdk/src/rp2_common/hardware_gpio/gpio.c.obj
 .debug_aranges
                0x00000478       0x40 CMakeFiles/fm_example.dir/home/pi/pico/pico-sdk/src/rp2_common/hardware_uart/uart.c.obj
 .debug_aranges
                0x000004b8       0xd0 CMakeFiles/fm_example.dir/home/pi/pico/pico-sdk/src/common/pico_time/time.c.obj
 .debug_aranges
                0x00000588       0x78 CMakeFiles/fm_example.dir/home/pi/pico/pico-sdk/src/rp2_common/hardware_timer/timer.c.obj
 .debug_aranges
                0x00000600       0x20 CMakeFiles/fm_example.dir/home/pi/pico/pico-sdk/src/common/pico_sync/lock_core.c.obj
 .debug_aranges
                0x00000620       0x60 CMakeFiles/fm_example.dir/home/pi/pico/pico-sdk/src/common/pico_sync/mutex.c.obj
 .debug_aranges
                0x00000680       0x30 CMakeFiles/fm_example.dir/home/pi/pico/pico-sdk/src/common/pico_sync/critical_section.c.obj
 .debug_aranges
                0x000006b0       0x78 CMakeFiles/fm_example.dir/home/pi/pico/pico-sdk/src/common/pico_util/pheap.c.obj
 .debug_aranges
                0x00000728       0x60 CMakeFiles/fm_example.dir/home/pi/pico/pico-sdk/src/rp2_common/pico_runtime/runtime.c.obj
 .debug_aranges
                0x00000788       0x70 CMakeFiles/fm_example.dir/home/pi/pico/pico-sdk/src/rp2_common/hardware_clocks/clocks.c.obj
 .debug_aranges
                0x000007f8       0x90 CMakeFiles/fm_example.dir/home/pi/pico/pico-sdk/src/rp2_common/hardware_irq/irq.c.obj
 .debug_aranges
                0x00000888       0x20 CMakeFiles/fm_example.dir/home/pi/pico/pico-sdk/src/rp2_common/hardware_irq/irq_handler_chain.S.obj
 .debug_aranges
                0x000008a8       0x28 CMakeFiles/fm_example.dir/home/pi/pico/pico-sdk/src/rp2_common/hardware_pll/pll.c.obj
 .debug_aranges
                0x000008d0       0x50 CMakeFiles/fm_example.dir/home/pi/pico/pico-sdk/src/rp2_common/hardware_watchdog/watchdog.c.obj
 .debug_aranges
                0x00000920       0x30 CMakeFiles/fm_example.dir/home/pi/pico/pico-sdk/src/rp2_common/hardware_xosc/xosc.c.obj
 .debug_aranges
                0x00000950       0x90 CMakeFiles/fm_example.dir/home/pi/pico/pico-sdk/src/rp2_common/pico_printf/printf.c.obj
 .debug_aranges
                0x000009e0       0x68 CMakeFiles/fm_example.dir/home/pi/pico/pico-sdk/src/rp2_common/pico_bit_ops/bit_ops_aeabi.S.obj
 .debug_aranges
                0x00000a48       0x30 CMakeFiles/fm_example.dir/home/pi/pico/pico-sdk/src/rp2_common/pico_bootrom/bootrom.c.obj
 .debug_aranges
                0x00000a78       0x40 CMakeFiles/fm_example.dir/home/pi/pico/pico-sdk/src/rp2_common/pico_divider/divider.S.obj
 .debug_aranges
                0x00000ab8      0x140 CMakeFiles/fm_example.dir/home/pi/pico/pico-sdk/src/rp2_common/pico_double/double_aeabi.S.obj
 .debug_aranges
                0x00000bf8       0x20 CMakeFiles/fm_example.dir/home/pi/pico/pico-sdk/src/rp2_common/pico_double/double_init_rom.c.obj
 .debug_aranges
                0x00000c18       0xc8 CMakeFiles/fm_example.dir/home/pi/pico/pico-sdk/src/rp2_common/pico_double/double_v1_rom_shim.S.obj
 .debug_aranges
                0x00000ce0       0x20 CMakeFiles/fm_example.dir/home/pi/pico/pico-sdk/src/rp2_common/pico_int64_ops/pico_int64_ops_aeabi.S.obj
 .debug_aranges
                0x00000d00      0x130 CMakeFiles/fm_example.dir/home/pi/pico/pico-sdk/src/rp2_common/pico_float/float_aeabi.S.obj
 .debug_aranges
                0x00000e30       0x20 CMakeFiles/fm_example.dir/home/pi/pico/pico-sdk/src/rp2_common/pico_float/float_init_rom.c.obj
 .debug_aranges
                0x00000e50      0x128 CMakeFiles/fm_example.dir/home/pi/pico/pico-sdk/src/rp2_common/pico_float/float_math.c.obj
 .debug_aranges
                0x00000f78       0x50 CMakeFiles/fm_example.dir/home/pi/pico/pico-sdk/src/rp2_common/pico_float/float_v1_rom_shim.S.obj
 .debug_aranges
                0x00000fc8       0x38 CMakeFiles/fm_example.dir/home/pi/pico/pico-sdk/src/rp2_common/pico_mem_ops/mem_ops_aeabi.S.obj
 .debug_aranges
                0x00001000       0x28 CMakeFiles/fm_example.dir/home/pi/pico/pico-sdk/src/rp2_common/pico_standard_link/crt0.S.obj
 .debug_aranges
                0x00001028       0x18 CMakeFiles/fm_example.dir/home/pi/pico/pico-sdk/src/rp2_common/pico_standard_link/binary_info.c.obj
 .debug_aranges
                0x00001040       0xb8 CMakeFiles/fm_example.dir/home/pi/pico/pico-sdk/src/rp2_common/pico_stdio/stdio.c.obj
 .debug_aranges
                0x000010f8       0x48 CMakeFiles/fm_example.dir/home/pi/pico/pico-sdk/src/rp2_common/pico_stdio_uart/stdio_uart.c.obj
 .debug_aranges
                0x00001140       0x50 CMakeFiles/fm_example.dir/home/pi/pico/pico-sdk/src/rp2_common/pico_stdio_usb/reset_interface.c.obj
 .debug_aranges
                0x00001190       0x40 CMakeFiles/fm_example.dir/home/pi/pico/pico-sdk/src/rp2_common/pico_stdio_usb/stdio_usb.c.obj
 .debug_aranges
                0x000011d0       0x30 CMakeFiles/fm_example.dir/home/pi/pico/pico-sdk/src/rp2_common/pico_stdio_usb/stdio_usb_descriptors.c.obj
 .debug_aranges
                0x00001200       0xf0 CMakeFiles/fm_example.dir/home/pi/pico/pico-sdk/lib/tinyusb/src/portable/raspberrypi/rp2040/dcd_rp2040.c.obj
 .debug_aranges
                0x000012f0       0x58 CMakeFiles/fm_example.dir/home/pi/pico/pico-sdk/lib/tinyusb/src/portable/raspberrypi/rp2040/rp2040_usb.c.obj
 .debug_aranges
                0x00001348      0x128 CMakeFiles/fm_example.dir/home/pi/pico/pico-sdk/lib/tinyusb/src/device/usbd.c.obj
 .debug_aranges
                0x00001470       0x50 CMakeFiles/fm_example.dir/home/pi/pico/pico-sdk/lib/tinyusb/src/device/usbd_control.c.obj
 .debug_aranges
                0x000014c0       0xa8 CMakeFiles/fm_example.dir/home/pi/pico/pico-sdk/lib/tinyusb/src/class/cdc/cdc_device.c.obj
 .debug_aranges
                0x00001568       0x38 CMakeFiles/fm_example.dir/home/pi/pico/pico-sdk/lib/tinyusb/src/tusb.c.obj
 .debug_aranges
                0x000015a0      0x118 CMakeFiles/fm_example.dir/home/pi/pico/pico-sdk/lib/tinyusb/src/common/tusb_fifo.c.obj
 .debug_aranges
                0x000016b8       0x30 CMakeFiles/fm_example.dir/home/pi/pico/pico-sdk/src/rp2_common/pico_unique_id/unique_id.c.obj
 .debug_aranges
                0x000016e8       0x50 CMakeFiles/fm_example.dir/home/pi/pico/pico-sdk/src/rp2_common/hardware_flash/flash.c.obj
 .debug_aranges
                0x00001738       0x50 CMakeFiles/fm_example.dir/pico-ss-oled/BitBang_I2C.c.obj
 .debug_aranges
                0x00001788      0x118 CMakeFiles/fm_example.dir/pico-ss-oled/ss_oled.c.obj
 .debug_aranges
                0x000018a0       0x20 CMakeFiles/fm_example.dir/home/pi/pico/pico-sdk/src/rp2_common/hardware_adc/adc.c.obj
 .debug_aranges
                0x000018c0       0x20 /usr/lib/gcc/arm-none-eabi/7.3.1/thumb/v6-m/libgcc.a(_dvmd_tls.o)
 .debug_aranges
                0x000018e0       0x20 /usr/lib/gcc/arm-none-eabi/7.3.1/../../../arm-none-eabi/lib/thumb/v6-m/libg.a(lib_a-strlen-stub.o)

.debug_ranges   0x00000000     0x2920
 .debug_ranges  0x00000000       0x78 CMakeFiles/fm_example.dir/fm_example.cpp.obj
 .debug_ranges  0x00000078      0x180 CMakeFiles/fm_example.dir/fm_rda5807/fm_rda5807.c.obj
 .debug_ranges  0x000001f8       0xd8 CMakeFiles/fm_example.dir/home/pi/pico/pico-sdk/src/rp2_common/hardware_i2c/i2c.c.obj
 .debug_ranges  0x000002d0       0x38 CMakeFiles/fm_example.dir/home/pi/pico/pico-sdk/src/rp2_common/hardware_claim/claim.c.obj
 .debug_ranges  0x00000308       0x18 CMakeFiles/fm_example.dir/home/pi/pico/pico-sdk/src/rp2_common/pico_platform/platform.c.obj
 .debug_ranges  0x00000320       0x48 CMakeFiles/fm_example.dir/home/pi/pico/pico-sdk/src/rp2_common/hardware_sync/sync.c.obj
 .debug_ranges  0x00000368       0xc8 CMakeFiles/fm_example.dir/rds_parser/rds_parser.c.obj
 .debug_ranges  0x00000430       0xe0 CMakeFiles/fm_example.dir/home/pi/pico/pico-sdk/src/rp2_common/hardware_gpio/gpio.c.obj
 .debug_ranges  0x00000510       0x60 CMakeFiles/fm_example.dir/home/pi/pico/pico-sdk/src/rp2_common/hardware_uart/uart.c.obj
 .debug_ranges  0x00000570      0x648 CMakeFiles/fm_example.dir/home/pi/pico/pico-sdk/src/common/pico_time/time.c.obj
 .debug_ranges  0x00000bb8       0x98 CMakeFiles/fm_example.dir/home/pi/pico/pico-sdk/src/rp2_common/hardware_timer/timer.c.obj
 .debug_ranges  0x00000c50       0x10 CMakeFiles/fm_example.dir/home/pi/pico/pico-sdk/src/common/pico_sync/lock_core.c.obj
 .debug_ranges  0x00000c60      0x158 CMakeFiles/fm_example.dir/home/pi/pico/pico-sdk/src/common/pico_sync/mutex.c.obj
 .debug_ranges  0x00000db8       0x20 CMakeFiles/fm_example.dir/home/pi/pico/pico-sdk/src/common/pico_sync/critical_section.c.obj
 .debug_ranges  0x00000dd8      0x248 CMakeFiles/fm_example.dir/home/pi/pico/pico-sdk/src/common/pico_util/pheap.c.obj
 .debug_ranges  0x00001020       0x50 CMakeFiles/fm_example.dir/home/pi/pico/pico-sdk/src/rp2_common/pico_runtime/runtime.c.obj
 .debug_ranges  0x00001070       0x60 CMakeFiles/fm_example.dir/home/pi/pico/pico-sdk/src/rp2_common/hardware_clocks/clocks.c.obj
 .debug_ranges  0x000010d0      0x140 CMakeFiles/fm_example.dir/home/pi/pico/pico-sdk/src/rp2_common/hardware_irq/irq.c.obj
 .debug_ranges  0x00001210       0x18 CMakeFiles/fm_example.dir/home/pi/pico/pico-sdk/src/rp2_common/hardware_pll/pll.c.obj
 .debug_ranges  0x00001228       0x40 CMakeFiles/fm_example.dir/home/pi/pico/pico-sdk/src/rp2_common/hardware_watchdog/watchdog.c.obj
 .debug_ranges  0x00001268       0x20 CMakeFiles/fm_example.dir/home/pi/pico/pico-sdk/src/rp2_common/hardware_xosc/xosc.c.obj
 .debug_ranges  0x00001288      0x110 CMakeFiles/fm_example.dir/home/pi/pico/pico-sdk/src/rp2_common/pico_printf/printf.c.obj
 .debug_ranges  0x00001398       0x60 CMakeFiles/fm_example.dir/home/pi/pico/pico-sdk/src/rp2_common/pico_bit_ops/bit_ops_aeabi.S.obj
 .debug_ranges  0x000013f8       0x38 CMakeFiles/fm_example.dir/home/pi/pico/pico-sdk/src/rp2_common/pico_bootrom/bootrom.c.obj
 .debug_ranges  0x00001430       0x38 CMakeFiles/fm_example.dir/home/pi/pico/pico-sdk/src/rp2_common/pico_divider/divider.S.obj
 .debug_ranges  0x00001468      0x138 CMakeFiles/fm_example.dir/home/pi/pico/pico-sdk/src/rp2_common/pico_double/double_aeabi.S.obj
 .debug_ranges  0x000015a0       0x10 CMakeFiles/fm_example.dir/home/pi/pico/pico-sdk/src/rp2_common/pico_double/double_init_rom.c.obj
 .debug_ranges  0x000015b0       0xc0 CMakeFiles/fm_example.dir/home/pi/pico/pico-sdk/src/rp2_common/pico_double/double_v1_rom_shim.S.obj
 .debug_ranges  0x00001670      0x128 CMakeFiles/fm_example.dir/home/pi/pico/pico-sdk/src/rp2_common/pico_float/float_aeabi.S.obj
 .debug_ranges  0x00001798       0x28 CMakeFiles/fm_example.dir/home/pi/pico/pico-sdk/src/rp2_common/pico_float/float_init_rom.c.obj
 .debug_ranges  0x000017c0      0x298 CMakeFiles/fm_example.dir/home/pi/pico/pico-sdk/src/rp2_common/pico_float/float_math.c.obj
 .debug_ranges  0x00001a58       0x48 CMakeFiles/fm_example.dir/home/pi/pico/pico-sdk/src/rp2_common/pico_float/float_v1_rom_shim.S.obj
 .debug_ranges  0x00001aa0       0x30 CMakeFiles/fm_example.dir/home/pi/pico/pico-sdk/src/rp2_common/pico_mem_ops/mem_ops_aeabi.S.obj
 .debug_ranges  0x00001ad0       0x20 CMakeFiles/fm_example.dir/home/pi/pico/pico-sdk/src/rp2_common/pico_standard_link/crt0.S.obj
 .debug_ranges  0x00001af0      0x180 CMakeFiles/fm_example.dir/home/pi/pico/pico-sdk/src/rp2_common/pico_stdio/stdio.c.obj
 .debug_ranges  0x00001c70       0xd8 CMakeFiles/fm_example.dir/home/pi/pico/pico-sdk/src/rp2_common/pico_stdio_uart/stdio_uart.c.obj
 .debug_ranges  0x00001d48       0x40 CMakeFiles/fm_example.dir/home/pi/pico/pico-sdk/src/rp2_common/pico_stdio_usb/reset_interface.c.obj
 .debug_ranges  0x00001d88       0xd8 CMakeFiles/fm_example.dir/home/pi/pico/pico-sdk/src/rp2_common/pico_stdio_usb/stdio_usb.c.obj
 .debug_ranges  0x00001e60       0x20 CMakeFiles/fm_example.dir/home/pi/pico/pico-sdk/src/rp2_common/pico_stdio_usb/stdio_usb_descriptors.c.obj
 .debug_ranges  0x00001e80      0x110 CMakeFiles/fm_example.dir/home/pi/pico/pico-sdk/lib/tinyusb/src/portable/raspberrypi/rp2040/dcd_rp2040.c.obj
 .debug_ranges  0x00001f90       0x48 CMakeFiles/fm_example.dir/home/pi/pico/pico-sdk/lib/tinyusb/src/portable/raspberrypi/rp2040/rp2040_usb.c.obj
 .debug_ranges  0x00001fd8      0x338 CMakeFiles/fm_example.dir/home/pi/pico/pico-sdk/lib/tinyusb/src/device/usbd.c.obj
 .debug_ranges  0x00002310       0x88 CMakeFiles/fm_example.dir/home/pi/pico/pico-sdk/lib/tinyusb/src/device/usbd_control.c.obj
 .debug_ranges  0x00002398      0x128 CMakeFiles/fm_example.dir/home/pi/pico/pico-sdk/lib/tinyusb/src/class/cdc/cdc_device.c.obj
 .debug_ranges  0x000024c0       0x88 CMakeFiles/fm_example.dir/home/pi/pico/pico-sdk/lib/tinyusb/src/tusb.c.obj
 .debug_ranges  0x00002548      0x178 CMakeFiles/fm_example.dir/home/pi/pico/pico-sdk/lib/tinyusb/src/common/tusb_fifo.c.obj
 .debug_ranges  0x000026c0       0x38 CMakeFiles/fm_example.dir/home/pi/pico/pico-sdk/src/rp2_common/pico_unique_id/unique_id.c.obj
 .debug_ranges  0x000026f8       0x58 CMakeFiles/fm_example.dir/home/pi/pico/pico-sdk/src/rp2_common/hardware_flash/flash.c.obj
 .debug_ranges  0x00002750       0x58 CMakeFiles/fm_example.dir/pico-ss-oled/BitBang_I2C.c.obj
 .debug_ranges  0x000027a8      0x168 CMakeFiles/fm_example.dir/pico-ss-oled/ss_oled.c.obj
 .debug_ranges  0x00002910       0x10 CMakeFiles/fm_example.dir/home/pi/pico/pico-sdk/src/rp2_common/hardware_adc/adc.c.obj

.debug_line     0x00000000     0xfc47
 .debug_line    0x00000000      0x903 CMakeFiles/fm_example.dir/fm_example.cpp.obj
 .debug_line    0x00000903      0xaf0 CMakeFiles/fm_example.dir/fm_rda5807/fm_rda5807.c.obj
 .debug_line    0x000013f3      0x643 CMakeFiles/fm_example.dir/home/pi/pico/pico-sdk/src/rp2_common/hardware_i2c/i2c.c.obj
 .debug_line    0x00001a36      0x268 CMakeFiles/fm_example.dir/home/pi/pico/pico-sdk/src/rp2_common/hardware_claim/claim.c.obj
 .debug_line    0x00001c9e      0x1a2 CMakeFiles/fm_example.dir/home/pi/pico/pico-sdk/src/rp2_common/pico_platform/platform.c.obj
 .debug_line    0x00001e40      0x298 CMakeFiles/fm_example.dir/home/pi/pico/pico-sdk/src/rp2_common/hardware_sync/sync.c.obj
 .debug_line    0x000020d8      0x2fa CMakeFiles/fm_example.dir/rds_parser/rds_parser.c.obj
 .debug_line    0x000023d2      0x588 CMakeFiles/fm_example.dir/home/pi/pico/pico-sdk/src/rp2_common/hardware_gpio/gpio.c.obj
 .debug_line    0x0000295a      0x44b CMakeFiles/fm_example.dir/home/pi/pico/pico-sdk/src/rp2_common/hardware_uart/uart.c.obj
 .debug_line    0x00002da5      0xa5f CMakeFiles/fm_example.dir/home/pi/pico/pico-sdk/src/common/pico_time/time.c.obj
 .debug_line    0x00003804      0x533 CMakeFiles/fm_example.dir/home/pi/pico/pico-sdk/src/rp2_common/hardware_timer/timer.c.obj
 .debug_line    0x00003d37      0x1e5 CMakeFiles/fm_example.dir/home/pi/pico/pico-sdk/src/common/pico_sync/lock_core.c.obj
 .debug_line    0x00003f1c      0x470 CMakeFiles/fm_example.dir/home/pi/pico/pico-sdk/src/common/pico_sync/mutex.c.obj
 .debug_line    0x0000438c      0x22e CMakeFiles/fm_example.dir/home/pi/pico/pico-sdk/src/common/pico_sync/critical_section.c.obj
 .debug_line    0x000045ba      0x3e8 CMakeFiles/fm_example.dir/home/pi/pico/pico-sdk/src/common/pico_util/pheap.c.obj
 .debug_line    0x000049a2      0x5c9 CMakeFiles/fm_example.dir/home/pi/pico/pico-sdk/src/rp2_common/pico_runtime/runtime.c.obj
 .debug_line    0x00004f6b      0x5bb CMakeFiles/fm_example.dir/home/pi/pico/pico-sdk/src/rp2_common/hardware_clocks/clocks.c.obj
 .debug_line    0x00005526      0x633 CMakeFiles/fm_example.dir/home/pi/pico/pico-sdk/src/rp2_common/hardware_irq/irq.c.obj
 .debug_line    0x00005b59       0x80 CMakeFiles/fm_example.dir/home/pi/pico/pico-sdk/src/rp2_common/hardware_irq/irq_handler_chain.S.obj
 .debug_line    0x00005bd9      0x358 CMakeFiles/fm_example.dir/home/pi/pico/pico-sdk/src/rp2_common/hardware_pll/pll.c.obj
 .debug_line    0x00005f31      0x28a CMakeFiles/fm_example.dir/home/pi/pico/pico-sdk/src/rp2_common/hardware_watchdog/watchdog.c.obj
 .debug_line    0x000061bb      0x1ae CMakeFiles/fm_example.dir/home/pi/pico/pico-sdk/src/rp2_common/hardware_xosc/xosc.c.obj
 .debug_line    0x00006369      0x60f CMakeFiles/fm_example.dir/home/pi/pico/pico-sdk/src/rp2_common/pico_printf/printf.c.obj
 .debug_line    0x00006978      0x143 CMakeFiles/fm_example.dir/home/pi/pico/pico-sdk/src/rp2_common/pico_bit_ops/bit_ops_aeabi.S.obj
 .debug_line    0x00006abb       0xf9 CMakeFiles/fm_example.dir/home/pi/pico/pico-sdk/src/rp2_common/pico_bootrom/bootrom.c.obj
 .debug_line    0x00006bb4      0x2ca CMakeFiles/fm_example.dir/home/pi/pico/pico-sdk/src/rp2_common/pico_divider/divider.S.obj
 .debug_line    0x00006e7e      0x421 CMakeFiles/fm_example.dir/home/pi/pico/pico-sdk/src/rp2_common/pico_double/double_aeabi.S.obj
 .debug_line    0x0000729f      0x26f CMakeFiles/fm_example.dir/home/pi/pico/pico-sdk/src/rp2_common/pico_double/double_init_rom.c.obj
 .debug_line    0x0000750e      0x697 CMakeFiles/fm_example.dir/home/pi/pico/pico-sdk/src/rp2_common/pico_double/double_v1_rom_shim.S.obj
 .debug_line    0x00007ba5       0x93 CMakeFiles/fm_example.dir/home/pi/pico/pico-sdk/src/rp2_common/pico_int64_ops/pico_int64_ops_aeabi.S.obj
 .debug_line    0x00007c38      0x3d7 CMakeFiles/fm_example.dir/home/pi/pico/pico-sdk/src/rp2_common/pico_float/float_aeabi.S.obj
 .debug_line    0x0000800f      0x275 CMakeFiles/fm_example.dir/home/pi/pico/pico-sdk/src/rp2_common/pico_float/float_init_rom.c.obj
 .debug_line    0x00008284      0x7f4 CMakeFiles/fm_example.dir/home/pi/pico/pico-sdk/src/rp2_common/pico_float/float_math.c.obj
 .debug_line    0x00008a78      0x1c3 CMakeFiles/fm_example.dir/home/pi/pico/pico-sdk/src/rp2_common/pico_float/float_v1_rom_shim.S.obj
 .debug_line    0x00008c3b       0xbd CMakeFiles/fm_example.dir/home/pi/pico/pico-sdk/src/rp2_common/pico_mem_ops/mem_ops_aeabi.S.obj
 .debug_line    0x00008cf8       0xce CMakeFiles/fm_example.dir/home/pi/pico/pico-sdk/src/rp2_common/pico_standard_link/crt0.S.obj
 .debug_line    0x00008dc6      0x15b CMakeFiles/fm_example.dir/home/pi/pico/pico-sdk/src/rp2_common/pico_standard_link/binary_info.c.obj
 .debug_line    0x00008f21      0x7b3 CMakeFiles/fm_example.dir/home/pi/pico/pico-sdk/src/rp2_common/pico_stdio/stdio.c.obj
 .debug_line    0x000096d4      0x534 CMakeFiles/fm_example.dir/home/pi/pico/pico-sdk/src/rp2_common/pico_stdio_uart/stdio_uart.c.obj
 .debug_line    0x00009c08      0x45d CMakeFiles/fm_example.dir/home/pi/pico/pico-sdk/src/rp2_common/pico_stdio_usb/reset_interface.c.obj
 .debug_line    0x0000a065      0x66e CMakeFiles/fm_example.dir/home/pi/pico/pico-sdk/src/rp2_common/pico_stdio_usb/stdio_usb.c.obj
 .debug_line    0x0000a6d3      0x369 CMakeFiles/fm_example.dir/home/pi/pico/pico-sdk/src/rp2_common/pico_stdio_usb/stdio_usb_descriptors.c.obj
 .debug_line    0x0000aa3c      0x7d2 CMakeFiles/fm_example.dir/home/pi/pico/pico-sdk/lib/tinyusb/src/portable/raspberrypi/rp2040/dcd_rp2040.c.obj
 .debug_line    0x0000b20e      0x51b CMakeFiles/fm_example.dir/home/pi/pico/pico-sdk/lib/tinyusb/src/portable/raspberrypi/rp2040/rp2040_usb.c.obj
 .debug_line    0x0000b729      0xcbd CMakeFiles/fm_example.dir/home/pi/pico/pico-sdk/lib/tinyusb/src/device/usbd.c.obj
 .debug_line    0x0000c3e6      0x403 CMakeFiles/fm_example.dir/home/pi/pico/pico-sdk/lib/tinyusb/src/device/usbd_control.c.obj
 .debug_line    0x0000c7e9      0x805 CMakeFiles/fm_example.dir/home/pi/pico/pico-sdk/lib/tinyusb/src/class/cdc/cdc_device.c.obj
 .debug_line    0x0000cfee      0x3a8 CMakeFiles/fm_example.dir/home/pi/pico/pico-sdk/lib/tinyusb/src/tusb.c.obj
 .debug_line    0x0000d396      0x919 CMakeFiles/fm_example.dir/home/pi/pico/pico-sdk/lib/tinyusb/src/common/tusb_fifo.c.obj
 .debug_line    0x0000dcaf      0x26b CMakeFiles/fm_example.dir/home/pi/pico/pico-sdk/src/rp2_common/pico_unique_id/unique_id.c.obj
 .debug_line    0x0000df1a      0x414 CMakeFiles/fm_example.dir/home/pi/pico/pico-sdk/src/rp2_common/hardware_flash/flash.c.obj
 .debug_line    0x0000e32e      0x57d CMakeFiles/fm_example.dir/pico-ss-oled/BitBang_I2C.c.obj
 .debug_line    0x0000e8ab      0xfca CMakeFiles/fm_example.dir/pico-ss-oled/ss_oled.c.obj
 .debug_line    0x0000f875      0x22f CMakeFiles/fm_example.dir/home/pi/pico/pico-sdk/src/rp2_common/hardware_adc/adc.c.obj
 .debug_line    0x0000faa4       0x5d /usr/lib/gcc/arm-none-eabi/7.3.1/thumb/v6-m/libgcc.a(_dvmd_tls.o)
 .debug_line    0x0000fb01      0x146 /usr/lib/gcc/arm-none-eabi/7.3.1/../../../arm-none-eabi/lib/thumb/v6-m/libg.a(lib_a-strlen-stub.o)

.debug_str      0x00000000     0x8ec1
 .debug_str     0x00000000     0x1b0b CMakeFiles/fm_example.dir/fm_example.cpp.obj
                               0x1dda (size before relaxing)
 .debug_str     0x00001b0b      0x35c CMakeFiles/fm_example.dir/fm_rda5807/fm_rda5807.c.obj
                                0xfe6 (size before relaxing)
 .debug_str     0x00001e67      0x31c CMakeFiles/fm_example.dir/home/pi/pico/pico-sdk/src/rp2_common/hardware_i2c/i2c.c.obj
                                0x83a (size before relaxing)
 .debug_str     0x00002183      0x1a8 CMakeFiles/fm_example.dir/home/pi/pico/pico-sdk/src/rp2_common/hardware_claim/claim.c.obj
                                0x36b (size before relaxing)
 .debug_str     0x0000232b       0x7d CMakeFiles/fm_example.dir/home/pi/pico/pico-sdk/src/rp2_common/pico_platform/platform.c.obj
                                0x227 (size before relaxing)
 .debug_str     0x000023a8       0xe8 CMakeFiles/fm_example.dir/home/pi/pico/pico-sdk/src/rp2_common/hardware_sync/sync.c.obj
                                0x352 (size before relaxing)
 .debug_str     0x00002490      0x188 CMakeFiles/fm_example.dir/rds_parser/rds_parser.c.obj
                                0x820 (size before relaxing)
 .debug_str     0x00002618      0x38c CMakeFiles/fm_example.dir/home/pi/pico/pico-sdk/src/rp2_common/hardware_gpio/gpio.c.obj
                                0x870 (size before relaxing)
 .debug_str     0x000029a4      0x207 CMakeFiles/fm_example.dir/home/pi/pico/pico-sdk/src/rp2_common/hardware_uart/uart.c.obj
                                0x531 (size before relaxing)
 .debug_str     0x00002bab      0x6ba CMakeFiles/fm_example.dir/home/pi/pico/pico-sdk/src/common/pico_time/time.c.obj
                                0xf79 (size before relaxing)
 .debug_str     0x00003265      0x17e CMakeFiles/fm_example.dir/home/pi/pico/pico-sdk/src/rp2_common/hardware_timer/timer.c.obj
                                0x693 (size before relaxing)
 .debug_str     0x000033e3       0x38 CMakeFiles/fm_example.dir/home/pi/pico/pico-sdk/src/common/pico_sync/lock_core.c.obj
                                0x25f (size before relaxing)
 .debug_str     0x0000341b      0x12e CMakeFiles/fm_example.dir/home/pi/pico/pico-sdk/src/common/pico_sync/mutex.c.obj
                                0x529 (size before relaxing)
 .debug_str     0x00003549       0xd0 CMakeFiles/fm_example.dir/home/pi/pico/pico-sdk/src/common/pico_sync/critical_section.c.obj
                                0x31f (size before relaxing)
 .debug_str     0x00003619       0xe8 CMakeFiles/fm_example.dir/home/pi/pico/pico-sdk/src/common/pico_util/pheap.c.obj
                                0x7da (size before relaxing)
 .debug_str     0x00003701      0x1ec CMakeFiles/fm_example.dir/home/pi/pico/pico-sdk/src/rp2_common/pico_runtime/runtime.c.obj
                                0xa29 (size before relaxing)
 .debug_str     0x000038ed      0x22f CMakeFiles/fm_example.dir/home/pi/pico/pico-sdk/src/rp2_common/hardware_clocks/clocks.c.obj
                                0x64e (size before relaxing)
 .debug_str     0x00003b1c      0x2c5 CMakeFiles/fm_example.dir/home/pi/pico/pico-sdk/src/rp2_common/hardware_irq/irq.c.obj
                                0x716 (size before relaxing)
 .debug_str     0x00003de1       0x55 CMakeFiles/fm_example.dir/home/pi/pico/pico-sdk/src/rp2_common/hardware_irq/irq_handler_chain.S.obj
                                 0x76 (size before relaxing)
 .debug_str     0x00003e36       0x85 CMakeFiles/fm_example.dir/home/pi/pico/pico-sdk/src/rp2_common/hardware_pll/pll.c.obj
                                0x2cb (size before relaxing)
 .debug_str     0x00003ebb       0xf5 CMakeFiles/fm_example.dir/home/pi/pico/pico-sdk/src/rp2_common/hardware_watchdog/watchdog.c.obj
                                0x6ea (size before relaxing)
 .debug_str     0x00003fb0       0x71 CMakeFiles/fm_example.dir/home/pi/pico/pico-sdk/src/rp2_common/hardware_xosc/xosc.c.obj
                                0x22a (size before relaxing)
 .debug_str     0x00004021      0x18c CMakeFiles/fm_example.dir/home/pi/pico/pico-sdk/src/rp2_common/pico_printf/printf.c.obj
                                0x766 (size before relaxing)
 .debug_str     0x000041ad       0x43 CMakeFiles/fm_example.dir/home/pi/pico/pico-sdk/src/rp2_common/pico_bit_ops/bit_ops_aeabi.S.obj
                                 0x72 (size before relaxing)
 .debug_str     0x000041f0       0xa9 CMakeFiles/fm_example.dir/home/pi/pico/pico-sdk/src/rp2_common/pico_bootrom/bootrom.c.obj
                                0x24a (size before relaxing)
 .debug_str     0x00004299       0x3d CMakeFiles/fm_example.dir/home/pi/pico/pico-sdk/src/rp2_common/pico_divider/divider.S.obj
                                 0x6c (size before relaxing)
 .debug_str     0x000042d6       0x41 CMakeFiles/fm_example.dir/home/pi/pico/pico-sdk/src/rp2_common/pico_double/double_aeabi.S.obj
                                 0x70 (size before relaxing)
 .debug_str     0x00004317       0x8d CMakeFiles/fm_example.dir/home/pi/pico/pico-sdk/src/rp2_common/pico_double/double_init_rom.c.obj
                                0x663 (size before relaxing)
 .debug_str     0x000043a4       0x47 CMakeFiles/fm_example.dir/home/pi/pico/pico-sdk/src/rp2_common/pico_double/double_v1_rom_shim.S.obj
                                 0x76 (size before relaxing)
 .debug_str     0x000043eb       0x4c CMakeFiles/fm_example.dir/home/pi/pico/pico-sdk/src/rp2_common/pico_int64_ops/pico_int64_ops_aeabi.S.obj
                                 0x7b (size before relaxing)
 .debug_str     0x00004437       0x3f CMakeFiles/fm_example.dir/home/pi/pico/pico-sdk/src/rp2_common/pico_float/float_aeabi.S.obj
                                 0x6e (size before relaxing)
 .debug_str     0x00004476       0x89 CMakeFiles/fm_example.dir/home/pi/pico/pico-sdk/src/rp2_common/pico_float/float_init_rom.c.obj
                                0x69b (size before relaxing)
 .debug_str     0x000044ff      0x2b6 CMakeFiles/fm_example.dir/home/pi/pico/pico-sdk/src/rp2_common/pico_float/float_math.c.obj
                                0x887 (size before relaxing)
 .debug_str     0x000047b5       0x45 CMakeFiles/fm_example.dir/home/pi/pico/pico-sdk/src/rp2_common/pico_float/float_v1_rom_shim.S.obj
                                 0x74 (size before relaxing)
 .debug_str     0x000047fa       0x43 CMakeFiles/fm_example.dir/home/pi/pico/pico-sdk/src/rp2_common/pico_mem_ops/mem_ops_aeabi.S.obj
                                 0x72 (size before relaxing)
 .debug_str     0x0000483d       0x40 CMakeFiles/fm_example.dir/home/pi/pico/pico-sdk/src/rp2_common/pico_standard_link/crt0.S.obj
                                 0x6f (size before relaxing)
 .debug_str     0x0000487d      0x240 CMakeFiles/fm_example.dir/home/pi/pico/pico-sdk/src/rp2_common/pico_standard_link/binary_info.c.obj
                                0x3e9 (size before relaxing)
 .debug_str     0x00004abd      0x249 CMakeFiles/fm_example.dir/home/pi/pico/pico-sdk/src/rp2_common/pico_stdio/stdio.c.obj
                                0xb43 (size before relaxing)
 .debug_str     0x00004d06      0x2a7 CMakeFiles/fm_example.dir/home/pi/pico/pico-sdk/src/rp2_common/pico_stdio_uart/stdio_uart.c.obj
                                0x6f3 (size before relaxing)
 .debug_str     0x00004fad      0x63f CMakeFiles/fm_example.dir/home/pi/pico/pico-sdk/src/rp2_common/pico_stdio_usb/reset_interface.c.obj
                                0xcdd (size before relaxing)
 .debug_str     0x000055ec      0x203 CMakeFiles/fm_example.dir/home/pi/pico/pico-sdk/src/rp2_common/pico_stdio_usb/stdio_usb.c.obj
                                0xc66 (size before relaxing)
 .debug_str     0x000057ef      0xaa4 CMakeFiles/fm_example.dir/home/pi/pico/pico-sdk/src/rp2_common/pico_stdio_usb/stdio_usb_descriptors.c.obj
                               0x13be (size before relaxing)
 .debug_str     0x00006293      0x921 CMakeFiles/fm_example.dir/home/pi/pico/pico-sdk/lib/tinyusb/src/portable/raspberrypi/rp2040/dcd_rp2040.c.obj
                               0x12c6 (size before relaxing)
 .debug_str     0x00006bb4      0x143 CMakeFiles/fm_example.dir/home/pi/pico/pico-sdk/lib/tinyusb/src/portable/raspberrypi/rp2040/rp2040_usb.c.obj
                                0xc59 (size before relaxing)
 .debug_str     0x00006cf7      0x94e CMakeFiles/fm_example.dir/home/pi/pico/pico-sdk/lib/tinyusb/src/device/usbd.c.obj
                               0x1c8f (size before relaxing)
 .debug_str     0x00007645       0xe7 CMakeFiles/fm_example.dir/home/pi/pico/pico-sdk/lib/tinyusb/src/device/usbd_control.c.obj
                                0xa97 (size before relaxing)
 .debug_str     0x0000772c      0x729 CMakeFiles/fm_example.dir/home/pi/pico/pico-sdk/lib/tinyusb/src/class/cdc/cdc_device.c.obj
                               0x1be9 (size before relaxing)
 .debug_str     0x00007e55       0x80 CMakeFiles/fm_example.dir/home/pi/pico/pico-sdk/lib/tinyusb/src/tusb.c.obj
                                0x829 (size before relaxing)
 .debug_str     0x00007ed5      0x387 CMakeFiles/fm_example.dir/home/pi/pico/pico-sdk/lib/tinyusb/src/common/tusb_fifo.c.obj
                                0xc04 (size before relaxing)
 .debug_str     0x0000825c       0xbc CMakeFiles/fm_example.dir/home/pi/pico/pico-sdk/src/rp2_common/pico_unique_id/unique_id.c.obj
                                0x27a (size before relaxing)
 .debug_str     0x00008318      0x216 CMakeFiles/fm_example.dir/home/pi/pico/pico-sdk/src/rp2_common/hardware_flash/flash.c.obj
                                0x4ad (size before relaxing)
 .debug_str     0x0000852e      0x284 CMakeFiles/fm_example.dir/pico-ss-oled/BitBang_I2C.c.obj
                                0x7db (size before relaxing)
 .debug_str     0x000087b2      0x522 CMakeFiles/fm_example.dir/pico-ss-oled/ss_oled.c.obj
                                0xf3b (size before relaxing)
 .debug_str     0x00008cd4       0x39 CMakeFiles/fm_example.dir/home/pi/pico/pico-sdk/src/rp2_common/hardware_adc/adc.c.obj
                                0x269 (size before relaxing)
 .debug_str     0x00008d0d       0x8f /usr/lib/gcc/arm-none-eabi/7.3.1/thumb/v6-m/libgcc.a(_dvmd_tls.o)
                                 0x9d (size before relaxing)
 .debug_str     0x00008d9c      0x125 /usr/lib/gcc/arm-none-eabi/7.3.1/../../../arm-none-eabi/lib/thumb/v6-m/libg.a(lib_a-strlen-stub.o)
                                0x5ad (size before relaxing)

.debug_frame    0x00000000     0x3628
 .debug_frame   0x00000000      0x144 CMakeFiles/fm_example.dir/fm_example.cpp.obj
 .debug_frame   0x00000144      0x414 CMakeFiles/fm_example.dir/fm_rda5807/fm_rda5807.c.obj
 .debug_frame   0x00000558      0x184 CMakeFiles/fm_example.dir/home/pi/pico/pico-sdk/src/rp2_common/hardware_i2c/i2c.c.obj
 .debug_frame   0x000006dc       0x98 CMakeFiles/fm_example.dir/home/pi/pico/pico-sdk/src/rp2_common/hardware_claim/claim.c.obj
 .debug_frame   0x00000774       0x38 CMakeFiles/fm_example.dir/home/pi/pico/pico-sdk/src/rp2_common/pico_platform/platform.c.obj
 .debug_frame   0x000007ac       0xc4 CMakeFiles/fm_example.dir/home/pi/pico/pico-sdk/src/rp2_common/hardware_sync/sync.c.obj
 .debug_frame   0x00000870      0x168 CMakeFiles/fm_example.dir/rds_parser/rds_parser.c.obj
 .debug_frame   0x000009d8      0x1e8 CMakeFiles/fm_example.dir/home/pi/pico/pico-sdk/src/rp2_common/hardware_gpio/gpio.c.obj
 .debug_frame   0x00000bc0       0x78 CMakeFiles/fm_example.dir/home/pi/pico/pico-sdk/src/rp2_common/hardware_uart/uart.c.obj
 .debug_frame   0x00000c38      0x290 CMakeFiles/fm_example.dir/home/pi/pico/pico-sdk/src/common/pico_time/time.c.obj
 .debug_frame   0x00000ec8      0x13c CMakeFiles/fm_example.dir/home/pi/pico/pico-sdk/src/rp2_common/hardware_timer/timer.c.obj
 .debug_frame   0x00001004       0x20 CMakeFiles/fm_example.dir/home/pi/pico/pico-sdk/src/common/pico_sync/lock_core.c.obj
 .debug_frame   0x00001024      0x104 CMakeFiles/fm_example.dir/home/pi/pico/pico-sdk/src/common/pico_sync/mutex.c.obj
 .debug_frame   0x00001128       0x50 CMakeFiles/fm_example.dir/home/pi/pico/pico-sdk/src/common/pico_sync/critical_section.c.obj
 .debug_frame   0x00001178      0x154 CMakeFiles/fm_example.dir/home/pi/pico/pico-sdk/src/common/pico_util/pheap.c.obj
 .debug_frame   0x000012cc       0xdc CMakeFiles/fm_example.dir/home/pi/pico/pico-sdk/src/rp2_common/pico_runtime/runtime.c.obj
 .debug_frame   0x000013a8      0x120 CMakeFiles/fm_example.dir/home/pi/pico/pico-sdk/src/rp2_common/hardware_clocks/clocks.c.obj
 .debug_frame   0x000014c8      0x180 CMakeFiles/fm_example.dir/home/pi/pico/pico-sdk/src/rp2_common/hardware_irq/irq.c.obj
 .debug_frame   0x00001648       0x40 CMakeFiles/fm_example.dir/home/pi/pico/pico-sdk/src/rp2_common/hardware_pll/pll.c.obj
 .debug_frame   0x00001688       0x98 CMakeFiles/fm_example.dir/home/pi/pico/pico-sdk/src/rp2_common/hardware_watchdog/watchdog.c.obj
 .debug_frame   0x00001720       0x40 CMakeFiles/fm_example.dir/home/pi/pico/pico-sdk/src/rp2_common/hardware_xosc/xosc.c.obj
 .debug_frame   0x00001760      0x1ec CMakeFiles/fm_example.dir/home/pi/pico/pico-sdk/src/rp2_common/pico_printf/printf.c.obj
 .debug_frame   0x0000194c       0x64 CMakeFiles/fm_example.dir/home/pi/pico/pico-sdk/src/rp2_common/pico_bootrom/bootrom.c.obj
 .debug_frame   0x000019b0       0x2c CMakeFiles/fm_example.dir/home/pi/pico/pico-sdk/src/rp2_common/pico_double/double_init_rom.c.obj
 .debug_frame   0x000019dc       0x2c CMakeFiles/fm_example.dir/home/pi/pico/pico-sdk/src/rp2_common/pico_float/float_init_rom.c.obj
 .debug_frame   0x00001a08      0x388 CMakeFiles/fm_example.dir/home/pi/pico/pico-sdk/src/rp2_common/pico_float/float_math.c.obj
 .debug_frame   0x00001d90      0x218 CMakeFiles/fm_example.dir/home/pi/pico/pico-sdk/src/rp2_common/pico_stdio/stdio.c.obj
 .debug_frame   0x00001fa8       0xb4 CMakeFiles/fm_example.dir/home/pi/pico/pico-sdk/src/rp2_common/pico_stdio_uart/stdio_uart.c.obj
 .debug_frame   0x0000205c       0x94 CMakeFiles/fm_example.dir/home/pi/pico/pico-sdk/src/rp2_common/pico_stdio_usb/reset_interface.c.obj
 .debug_frame   0x000020f0       0xa4 CMakeFiles/fm_example.dir/home/pi/pico/pico-sdk/src/rp2_common/pico_stdio_usb/stdio_usb.c.obj
 .debug_frame   0x00002194       0x48 CMakeFiles/fm_example.dir/home/pi/pico/pico-sdk/src/rp2_common/pico_stdio_usb/stdio_usb_descriptors.c.obj
 .debug_frame   0x000021dc      0x2ac CMakeFiles/fm_example.dir/home/pi/pico/pico-sdk/lib/tinyusb/src/portable/raspberrypi/rp2040/dcd_rp2040.c.obj
 .debug_frame   0x00002488       0xdc CMakeFiles/fm_example.dir/home/pi/pico/pico-sdk/lib/tinyusb/src/portable/raspberrypi/rp2040/rp2040_usb.c.obj
 .debug_frame   0x00002564      0x3ac CMakeFiles/fm_example.dir/home/pi/pico/pico-sdk/lib/tinyusb/src/device/usbd.c.obj
 .debug_frame   0x00002910       0xc8 CMakeFiles/fm_example.dir/home/pi/pico/pico-sdk/lib/tinyusb/src/device/usbd_control.c.obj
 .debug_frame   0x000029d8      0x1ec CMakeFiles/fm_example.dir/home/pi/pico/pico-sdk/lib/tinyusb/src/class/cdc/cdc_device.c.obj
 .debug_frame   0x00002bc4       0x84 CMakeFiles/fm_example.dir/home/pi/pico/pico-sdk/lib/tinyusb/src/tusb.c.obj
 .debug_frame   0x00002c48      0x36c CMakeFiles/fm_example.dir/home/pi/pico/pico-sdk/lib/tinyusb/src/common/tusb_fifo.c.obj
 .debug_frame   0x00002fb4       0x58 CMakeFiles/fm_example.dir/home/pi/pico/pico-sdk/src/rp2_common/pico_unique_id/unique_id.c.obj
 .debug_frame   0x0000300c       0xcc CMakeFiles/fm_example.dir/home/pi/pico/pico-sdk/src/rp2_common/hardware_flash/flash.c.obj
 .debug_frame   0x000030d8       0xd8 CMakeFiles/fm_example.dir/pico-ss-oled/BitBang_I2C.c.obj
 .debug_frame   0x000031b0      0x430 CMakeFiles/fm_example.dir/pico-ss-oled/ss_oled.c.obj
 .debug_frame   0x000035e0       0x20 CMakeFiles/fm_example.dir/home/pi/pico/pico-sdk/src/rp2_common/hardware_adc/adc.c.obj
 .debug_frame   0x00003600       0x28 /usr/lib/gcc/arm-none-eabi/7.3.1/../../../arm-none-eabi/lib/thumb/v6-m/libg.a(lib_a-strlen-stub.o)
